(lp0
(lp1
F0.57231
aF0.644835
aF0.057315000000000005
aF-0.0
aF0.008930104000000938
aF1.9654132953
aa(lp2
F0.53715
aF0.6448200000000001
aF0.057315000000000005
aF-0.0
aF0.008930104000000938
aF1.9654132953
aa(lp3
F0.54216
aF0.49473
aF0.057315000000000005
aF-0.0
aF0.008930104000000938
aF1.9654132953
aa(lp4
F0.5771850000000001
aF0.49473
aF0.057315000000000005
aF-0.0
aF0.008930104000000938
aF1.9654132953
aa(lp5
F0.65217
aF0.8244900000000001
aF0.34479
aF-0.0
aF0.008930104000000938
aF1.9654132953
aa(lp6
F0.43203
aF0.821955
aF0.34479
aF-0.0
aF0.008930104000000938
aF1.9654132953
aa(lp7
F0.447
aF0.31191
aF0.34479
aF-0.0
aF0.008930104000000938
aF1.9654132953
aa(lp8
F0.672075
aF0.321915
aF0.34479
aF-0.0
aF0.008930104000000938
aF1.9654132953
aa.