(lp0
(lp1
F0.572415
aF0.62985
aF0.049980000000000004
aF-0.0
aF0.008930104000000938
aF101.9855118726
aa(lp2
F0.542295
aF0.62985
aF0.049980000000000004
aF-0.0
aF0.008930104000000938
aF101.9855118726
aa(lp3
F0.544785
aF0.494535
aF0.049980000000000004
aF-0.0
aF0.008930104000000938
aF101.9855118726
aa(lp4
F0.57231
aF0.494535
aF0.049980000000000004
aF-0.0
aF0.008930104000000938
aF101.9855118726
aa(lp5
F0.76227
aF1.002045
aF0.599955
aF-0.0
aF0.008930104000000938
aF101.9855118726
aa(lp6
F0.35472000000000004
aF0.99951
aF0.599955
aF-0.0
aF0.008930104000000938
aF101.9855118726
aa(lp7
F0.35968500000000003
aF0.157065
aF0.599955
aF-0.0
aF0.008930104000000938
aF101.9855118726
aa(lp8
F0.75966
aF0.157065
aF0.599955
aF-0.0
aF0.008930104000000938
aF101.9855118726
aa.