(lp0
(lp1
F0.6024
aF0.632325
aF0.030045000000000002
aF-0.0
aF0.008930104000000938
aF10.2590254425
aa(lp2
F0.5748
aF0.6348
aF0.030045000000000002
aF-0.0
aF0.008930104000000938
aF10.2590254425
aa(lp3
F0.5748
aF0.5021100000000001
aF0.030045000000000002
aF-0.0
aF0.008930104000000938
aF10.2590254425
aa(lp4
F0.60228
aF0.50208
aF0.030045000000000002
aF-0.0
aF0.008930104000000938
aF10.2590254425
aa(lp5
F0.6647850000000001
aF0.737055
aF0.17253000000000002
aF-0.0
aF0.008930104000000938
aF10.2590254425
aa(lp6
F0.52725
aF0.734535
aF0.17253000000000002
aF-0.0
aF0.008930104000000938
aF10.2590254425
aa(lp7
F0.52725
aF0.41197500000000004
aF0.17253000000000002
aF-0.0
aF0.008930104000000938
aF10.2590254425
aa(lp8
F0.659625
aF0.40695000000000003
aF0.17253000000000002
aF-0.0
aF0.008930104000000938
aF10.2590254425
aa.