(lp0
(lp1
F0.589875
aF0.66483
aF0.084945
aF-0.0
aF0.008930104000000938
aF1.9654132953
aa(lp2
F0.537255
aF0.65979
aF0.084945
aF-0.0
aF0.008930104000000938
aF1.9654132953
aa(lp3
F0.542265
aF0.47973
aF0.084945
aF-0.0
aF0.008930104000000938
aF1.9654132953
aa(lp4
F0.594765
aF0.47973
aF0.084945
aF-0.0
aF0.008930104000000938
aF1.9654132953
aa(lp5
F0.78471
aF1.019595
aF0.622395
aF-0.0
aF0.008930104000000938
aF1.9654132953
aa(lp6
F0.367245
aF0.99456
aF0.622395
aF-0.0
aF0.008930104000000938
aF1.9654132953
aa(lp7
F0.39226500000000003
aF0.13947
aF0.622395
aF-0.0
aF0.008930104000000938
aF1.9654132953
aa(lp8
F0.809535
aF0.136965
aF0.622395
aF-0.0
aF0.008930104000000938
aF10.179832965400001
aa.