(lp0
(lp1
F0.575
aF0.575
aF0.3
aa(lp2
F0.6734489866579727
aF0.6555208112425316
aF0.32813714877836375
aa(lp3
F0.5661744804465775
aF0.6656998915964838
aF0.33639559069758607
aa(lp4
F0.6583473601545915
aF0.8113673913491051
aF0.37934610994892354
aa(lp5
F0.6359161575193237
aF0.7138225386889503
aF0.3053520813150614
aa(lp6
F0.6946987098912852
aF0.5855906267524095
aF0.4283226914103624
aa(lp7
F0.7171391338166806
aF0.5699983789324647
aF0.49838810502109343
aa(lp8
F0.6565403815151065
aF0.5622202909781646
aF0.611088437946206
aa(lp9
F0.5483175497623705
aF0.7158126354344619
aF0.6597372624272565
aa(lp10
F0.6313887527126196
aF0.7242788632697488
aF0.647553843607306
aa(lp11
F0.7188749755178261
aF0.8087925898669611
aF0.5162012974436773
aa(lp12
F0.6053570379728989
aF0.9316848599137176
aF0.592458753530116
aa(lp13
F0.5344063718720381
aF0.9455660688724769
aF0.68561653492862
aa(lp14
F0.5525154206052534
aF1.0371937740921957
aF0.7670132726835295
aa(lp15
F0.5190394640489371
aF0.8701145283503606
aF0.674306798156978
aa(lp16
F0.3731959229226934
aF0.890856357477385
aF0.5734375176201623
aa(lp17
F0.38949953585994734
aF0.8377564905080663
aF0.5670779070209659
aa(lp18
F0.4475067499422314
aF0.9609095342185177
aF0.6328513941675985
aa(lp19
F0.3889464104249923
aF0.9027171280952004
aF0.5435020567291364
aa(lp20
F0.48310663389182235
aF0.9060795111100416
aF0.4380788621877389
aa(lp21
F0.45283412970759895
aF0.8377831143589594
aF0.3384881194332632
aa(lp22
F0.5741582725803183
aF0.49418584742552696
aF0.30509981127006425
aa(lp23
F0.6219297621045021
aF0.591127951520677
aF0.1577268725470077
aa(lp24
F0.5710293346713449
aF0.5780155014986007
aF0.05339360664529816
aa(lp25
F0.5579478351234295
aF0.723246796482447
aF0.21006822092331207
aa(lp26
F0.6166867143308438
aF0.6964594374868931
aF0.19996393561007322
aa(lp27
F0.6109807265784741
aF0.5504430988927128
aF0.22744704881929245
aa(lp28
F0.5608742169044649
aF0.4804064482659319
aF0.12066449657202859
aa(lp29
F0.5786817505759506
aF0.5354442740257495
aF0.0215141481936425
aa(lp30
F0.5982536272825467
aF0.5301630094157631
aF0.2025619324399063
aa(lp31
F0.5904478936294991
aF0.6419847786519348
aF0.30580715058076324
aa(lp32
F0.6654777938566343
aF0.8121982510368911
aF0.3468942083911992
aa(lp33
F0.6210315442931204
aF0.720320998963077
aF0.2085196070611721
aa(lp34
F0.5250756171926684
aF0.6624665799512527
aF0.2463469885641228
aa(lp35
F0.5123985123176855
aF0.494296609934564
aF0.24284230392218564
aa(lp36
F0.5633457336126806
aF0.5110812211326448
aF0.0943565306440596
aa(lp37
F0.545252513487401
aF0.5568388400281972
aF0.16074631564846778
aa(lp38
F0.5884872194229307
aF0.5900864735502674
aF0.1834864682863996
aa(lp39
F0.5713433484704507
aF0.5053992016465391
aF0.06393221407631576
aa(lp40
F0.6238589474023585
aF0.4837078899255791
aF0.19537095900189227
aa(lp41
F0.499584207799639
aF0.6283960627156497
aF0.21016985707112934
aa(lp42
F0.5492578605892332
aF0.7098676248860101
aF0.17900958296632732
aa(lp43
F0.5361097837814817
aF0.53627592693543
aF0.14331817875828332
aa(lp44
F0.7234925741411901
aF0.2842080217879519
aF0.4572840402593621
aa(lp45
F0.5326147943904337
aF0.3271345191278416
aF0.44428983295862046
aa(lp46
F0.7000246013586229
aF0.40768376059008543
aF0.41598522173360647
aa(lp47
F0.6480889948769591
aF0.3133060276952821
aF0.47771223772342597
aa(lp48
F0.6962203766544883
aF0.22250785348286245
aF0.5551871417583764
aa(lp49
F0.610462578850376
aF0.2335849399943835
aF0.6632154682049257
aa(lp50
F0.5648869105776129
aF0.19203508226431554
aF0.7848477095082869
aa(lp51
F0.6546389610126544
aF0.1076758176482052
aF0.7006527756994925
aa(lp52
F0.7038687352290007
aF0.2592123309032357
aF0.6194253923653529
aa(lp53
F0.7143828757942854
aF0.44664635783528556
aF0.6558758548069212
aa(lp54
F0.6565506311896273
aF0.5647014694368635
aF0.5535075409474675
aa(lp55
F0.7150554077755193
aF0.5967520762203598
aF0.5717682413186056
aa(lp56
F0.6917830822903587
aF0.7422289794633247
aF0.6442246398504097
aa(lp57
F0.7271444236553888
aF0.849445298988585
aF0.5696748990235329
aa(lp58
F0.7178626496828555
aF0.776963743823744
aF0.4251104577625617
aa(lp59
F0.7013013192151503
aF0.8816409552632791
aF0.5144185278878651
aa(lp60
F0.5965512130720756
aF0.7802868005750779
aF0.6319310463247191
aa(lp61
F0.5948449993399936
aF0.7533042898788476
aF0.4656332719723422
aa(lp62
F0.49795915414230657
aF0.8065303582160231
aF0.35006246590593304
aa(lp63
F0.5674496908199402
aF0.7663346848022716
aF0.2294456209686148
aa(lp64
F0.47753486070574086
aF0.47356728417917715
aF0.41953268030483426
aa(lp65
F0.450564136218321
aF0.5437635426899404
aF0.4567918810867669
aa(lp66
F0.42617665229429924
aF0.5434526878603626
aF0.49576149201161485
aa(lp67
F0.5755871504770895
aF0.5884140502373199
aF0.018410547442809035
aa(lp68
F0.542369198095302
aF0.5331270689386596
aF0.15977010449270823
aa(lp69
F0.5531479762854833
aF0.5672009717000078
aF0.24892649696260333
aa(lp70
F0.6029411193332708
aF0.6277521891132052
aF0.22078363988123348
aa(lp71
F0.5719337969851173
aF0.49338832609825617
aF0.07771117483504027
aa(lp72
F0.5764476854487254
aF0.6250327549079613
aF0.07950425059198274
aa(lp73
F0.5666492834004025
aF0.5254454088579069
aF0.05233495520112213
aa(lp74
F0.5600952988726339
aF0.5167898006255855
aF0.12722876164291172
aa(lp75
F0.5694245780957882
aF0.5330018561723011
aF0.19968154361381174
aa(lp76
F0.5189656397929439
aF0.4779585703231046
aF0.21367579348210342
aa(lp77
F0.6087174105287266
aF0.49251590725031874
aF0.3545018703558325
aa(lp78
F0.5002588172752589
aF0.42196118623753953
aF0.44393852180994453
aa(lp79
F0.5488099149477396
aF0.46859323933979724
aF0.48762764353734855
aa(lp80
F0.4261072654130868
aF0.5410725841172874
aF0.5592076461823233
aa(lp81
F0.5039175934421555
aF0.5962838552643588
aF0.5135451764137989
aa(lp82
F0.5185996772789045
aF0.4055112858533608
aF0.5704078359962405
aa(lp83
F0.5401318290900683
aF0.5122505980418993
aF0.6353622247426103
aa(lp84
F0.49304291665329714
aF0.4508828342749695
aF0.7888607870132809
aa(lp85
F0.3785970584870564
aF0.30482279494738235
aF0.79174437373619
aa(lp86
F0.41632868235097276
aF0.2557642711118213
aF0.6636698710771467
aa(lp87
F0.4587431994343212
aF0.3577836990073899
aF0.7259055225551418
aa(lp88
F0.4230620636059216
aF0.24651368259782258
aF0.5659728744173403
aa(lp89
F0.3619602152090175
aF0.35091807294220995
aF0.6581221566195892
aa(lp90
F0.37607609997409097
aF0.44617812540451407
aF0.5906888256045282
aa(lp91
F0.527726544985152
aF0.521170950540861
aF0.4939431246577347
aa(lp92
F0.47652690225093153
aF0.3926035872692362
aF0.5179065268331364
aa(lp93
F0.6756334633682355
aF0.6085659596670646
aF0.34218354751742236
aa(lp94
F0.49536341911059195
aF0.6544585899544098
aF0.3040491654481122
aa(lp95
F0.6057238858714529
aF0.7265718171641168
aF0.17765180281934861
aa(lp96
F0.5660331032999465
aF0.6448661601158407
aF0.0723234592249006
aa(lp97
F0.5404871473062103
aF0.6079521352286374
aF0.1255119375521514
aa(lp98
F0.5882817062451107
aF0.5184143206897782
aF0.25510360711300795
aa(lp99
F0.5277357522630329
aF0.6710022330886466
aF0.23610916935277315
aa(lp100
F0.5669916316784515
aF0.5831634228386021
aF0.06559369273286278
aa(lp101
F0.5619556892901733
aF0.5160481155894182
aF0.0820808353403594
aa(lp102
F0.5735077489832623
aF0.6109385683310276
aF0.01581207251107566
aa(lp103
F0.5731284219194506
aF0.6484427219801006
aF0.06287468066125985
aa(lp104
F0.6012713069082658
aF0.5833381335378243
aF0.11323177227754143
aa(lp105
F0.5677333529014116
aF0.5686081699493037
aF0.025702830422690948
aa(lp106
F0.54570707063014
aF0.6604256037061236
aF0.1309249650893702
aa(lp107
F0.5781687062012368
aF0.46524142443612126
aF0.14793079042640755
aa(lp108
F0.5207327373478464
aF0.5309036207299027
aF0.32679284103520034
aa(lp109
F0.5649984374335718
aF0.6258311527958229
aF0.3547184112022209
aa(lp110
F0.6290615681148399
aF0.6563615182375389
aF0.34429458212877445
aa(lp111
F0.6156032949357271
aF0.7296648029422214
aF0.3782741105110112
aa(lp112
F0.7011766103806865
aF0.7424776667392217
aF0.49683840038347515
aa(lp113
F0.5482627928174717
aF0.8202878702348524
aF0.5575522993262598
aa(lp114
F0.39271788874885166
aF0.9089662028773183
aF0.6274438302741763
aa(lp115
F0.47727015324666383
aF0.8664473662326233
aF0.5210178775479716
aa(lp116
F0.6307975528785577
aF0.8762399949230373
aF0.4846921925688042
aa(lp117
F0.6701266736387397
aF0.8517144374843341
aF0.6084925817971368
aa(lp118
F0.580228052667412
aF0.7024187836970249
aF0.6473316530061339
aa(lp119
F0.5558646932511202
aF0.6638599150794089
aF0.6436697130294452
aa(lp120
F0.5126114982076089
aF0.4944297181417511
aF0.733413077971443
aa(lp121
F0.33786027402885443
aF0.525246596505346
aF0.7714310572725476
aa(lp122
F0.5487674711878573
aF0.4537889127839349
aF0.28159340400558247
aa(lp123
F0.4710086644394765
aF0.3756849415882089
aF0.3882183351589741
aa(lp124
F0.562595425011251
aF0.46707273387618753
aF0.4523148868040572
aa(lp125
F0.616264275524532
aF0.5295281817148383
aF0.44642823245851954
aa(lp126
F0.4934270912709068
aF0.5124293008672759
aF0.3867910753768158
aa(lp127
F0.5208184184647597
aF0.4077831068692784
aF0.237996341600057
aa(lp128
F0.563775622150275
aF0.45564393213414106
aF0.2674083119092832
aa(lp129
F0.6497093573273107
aF0.6279533201592873
aF0.3040868768867053
aa(lp130
F0.7032918713446855
aF0.6983693531375612
aF0.4340939299225851
aa(lp131
F0.6270188991494646
aF0.7876226348294827
aF0.5482351076476698
aa(lp132
F0.5897862678712787
aF0.8870711967774124
aF0.5789696463199431
aa(lp133
F0.6996346077835591
aF0.7997430913755077
aF0.580799145678247
aa(lp134
F0.6994127413295808
aF0.9030794170316271
aF0.4904156680853664
aa(lp135
F0.5615977566276427
aF0.9406711093773656
aF0.6160292943574323
aa(lp136
F0.6348713379667478
aF1.0230605236512549
aF0.6977982691154949
aa(lp137
F0.7527699588222043
aF0.9326155912684178
aF0.7401681467417317
aa(lp138
F0.6313017229283526
aF0.8709595520630435
aF0.5397681319243367
aa(lp139
F0.6282323497203092
aF0.8192432182231796
aF0.3701058377203901
aa(lp140
F0.6473517213190216
aF0.657645750126413
aF0.28084075649005386
aa(lp141
F0.5088831540548174
aF0.6577506018798818
aF0.36895351169946333
aa(lp142
F0.6431886769728465
aF0.7801096805720052
aF0.28652237290919785
aa(lp143
F0.5048912182303575
aF0.693273635634762
aF0.33358450927594263
aa(lp144
F0.45610276869675803
aF0.6353784937913333
aF0.3926234180170097
aa(lp145
F0.40583422132727903
aF0.4599808428419577
aF0.4646644297501734
aa(lp146
F0.48209674663124213
aF0.7733246634760738
aF0.36998802556617083
aa(lp147
F0.5608772413818773
aF0.8733427889513272
aF0.3910756039362439
aa(lp148
F0.6733893531295588
aF0.7594525063433202
aF0.430811950265512
aa(lp149
F0.6402822498661218
aF0.6811472382587997
aF0.2591146045270038
aa(lp150
F0.5299124229814454
aF0.6659862211517272
aF0.23593963342058624
aa(lp151
F0.5807279845580351
aF0.6369088775624684
aF0.0704624270039866
aa(lp152
F0.5964582574242977
aF0.5455753043722312
aF0.08395619383629382
aa(lp153
F0.5723200134760797
aF0.6019785706660062
aF0.007391803305521538
aa(lp154
F0.565243363512271
aF0.5367703842143677
aF0.0602194295541902
aa(lp155
F0.5679509397090834
aF0.5248417233030392
aF0.03004592767004466
aa(lp156
F0.5692051354260745
aF0.6243820088591213
aF0.04172612356674082
aa(lp157
F0.5777861485030722
aF0.5448324127940961
aF0.08407784867132194
aa(lp158
F0.579952840712325
aF0.5990065075426287
aF0.038349168336748285
aa(lp159
F0.563460113680522
aF0.6278149122205879
aF0.0562503579078407
aa(lp160
F0.5641179944271159
aF0.45877675309728333
aF0.14886788862715275
aa(lp161
F0.5704454970264964
aF0.5806716413160682
aF0.004710629794011378
aa(lp162
F0.5255159581567894
aF0.7305270388904292
aF0.46672310760271496
aa(lp163
F0.4673596310984566
aF0.6593430291361962
aF0.5962269987802937
aa(lp164
F0.4865438724333039
aF0.7132057906070233
aF0.7489344556291601
aa(lp165
F0.5631074822165034
aF0.7875240399692622
aF0.7195348625830347
aa(lp166
F0.6714750579900768
aF0.7916175610991708
aF0.733244986722859
aa(lp167
F0.7506518181031325
aF0.8303257764799031
aF0.7857269082936847
aa(lp168
F0.688021372259789
aF0.9023216596678256
aF0.6378735147620541
aa(lp169
F0.6129209940100212
aF0.9843636389610975
aF0.578510394794953
aa(lp170
F0.7856772466108711
aF0.2599877985682898
aF0.7277732857913661
aa(lp171
F0.778637695967134
aF0.15662372200682212
aF0.6421202042357388
aa(lp172
F0.7603582874111734
aF0.25156233497499797
aF0.5496119430996643
aa(lp173
F0.647218607260698
aF0.26639136329802904
aF0.5189998776632979
aa(lp174
F0.5993364465955486
aF0.39345207299078605
aF0.5999166085889953
aa(lp175
F0.6434778108896388
aF0.471489934614703
aF0.6027842952151272
aa(lp176
F0.6907648267586666
aF0.33968182044689094
aF0.4693340495684004
aa(lp177
F0.46773492464390815
aF0.5612078677246723
aF0.4033295359425279
aa(lp178
F0.4632626879039377
aF0.46432681751053007
aF0.4589406758995287
aa(lp179
F0.4702574652466033
aF0.3952394172027378
aF0.4401826357820826
aa(lp180
F0.5041064370728956
aF0.37963042137113445
aF0.2975363334165529
aa(lp181
F0.5455170669815912
aF0.432438768139522
aF0.22778484125904994
aa(lp182
F0.5521773187815519
aF0.6656404908512625
aF0.7838326794771024
aa(lp183
F0.6926472125055549
aF0.6407749167559721
aF0.7311695489643233
aa(lp184
F0.6424322964678795
aF0.7291641402139785
aF0.6159357106081388
aa(lp185
F0.7244835118442978
aF0.8086102931152108
aF0.5504059867320984
aa(lp186
F0.6526737177382793
aF0.16674546045637714
aF0.6957714723141037
aa(lp187
F0.4934107425356793
aF0.2398247683397619
aF0.7796624225825218
aa(lp188
F0.38507871766000545
aF0.34900053718203494
aF0.7597686146375171
aa(lp189
F0.3614865424397371
aF0.36026130811052864
aF0.744009073949503
aa(lp190
F0.3990888185781116
aF0.28665062782252815
aF0.59654255092143
aa(lp191
F0.47157489828064864
aF0.31749153382521567
aF0.41341376629562643
aa(lp192
F0.5051022470962888
aF0.5131932556844406
aF0.4223838833626687
aa(lp193
F0.5837535865826696
aF0.5649530164072104
aF0.31378142212301063
aa(lp194
F0.5454560441983336
aF0.5400435887881997
aF0.15836576174150158
aa(lp195
F0.5726935550921712
aF0.6136199382704968
aF0.013328176335308318
aa(lp196
F0.34775141370491663
aF0.4834942709057911
aF0.6473779448650444
aa(lp197
F0.35677535793955434
aF0.6464606698410964
aF0.6919434738163107
aa(lp198
F0.31341433006196573
aF0.7335070029855371
aF0.7345661845992772
aa(lp199
F0.36576425086711617
aF0.8458864396069442
aF0.7201005000304903
aa(lp200
F0.3270516993834547
aF0.6582647082849545
aF0.6783521464327675
aa(lp201
F0.4576985552244952
aF0.6070414026679241
aF0.7796214266379534
aa(lp202
F0.48660925689159107
aF0.6655314673850515
aF0.6198724030505741
aa(lp203
F0.536888165416525
aF0.7876748151987577
aF0.49733410590319577
aa(lp204
F0.5326006970912964
aF0.7979347160623937
aF0.4310688109880458
aa(lp205
F0.5158646693355728
aF0.626389311136561
aF0.34261497046426825
aa(lp206
F0.5231750851059387
aF0.6977258708021373
aF0.32467196493935657
aa(lp207
F0.5219771569218309
aF0.5285217165419864
aF0.30428066411860516
aa(lp208
F0.6175394430096558
aF0.4701876879740902
aF0.1409255107744353
aa(lp209
F0.5707672809796355
aF0.5062843454994025
aF0.09768938447203333
aa(lp210
F0.5766666903319847
aF0.565458298332021
aF0.036517594302184535
aa(lp211
F0.5553734512693416
aF0.5291309868611757
aF0.07293048787866833
aa(lp212
F0.5728811762031094
aF0.545495217916326
aF0.011192132595972471
aa(lp213
F0.5743432085046654
aF0.573384933962009
aF0.004885454887148023
aa(lp214
F0.5363124746019496
aF0.5290958539890043
aF0.13604624980347088
aa(lp215
F0.5621080299399568
aF0.5785481971666517
aF0.05828327868294965
aa(lp216
F0.5674250330076005
aF0.5122836027294175
aF0.18994866340793903
aa(lp217
F0.6570888536290468
aF0.47213844585362763
aF0.3391507685307086
aa(lp218
F0.46975222249960336
aF0.5193708179122853
aF0.32363259842579944
aa(lp219
F0.5399130743493515
aF0.5135850016154058
aF0.2931155045729768
aa(lp220
F0.6175732514860492
aF0.4343217899364229
aF0.6911549108947153
aa(lp221
F0.602571471300926
aF0.4643663523318501
aF0.525292409278866
aa(lp222
F0.5919308297585602
aF0.3933161339331131
aF0.37220823958602534
aa(lp223
F0.6518290793582504
aF0.5568512771724565
aF0.31099224642293466
aa(lp224
F0.621649141404117
aF0.5807703242420823
aF0.2072351092038673
aa(lp225
F0.571003488676496
aF0.5836635697029248
aF0.04596050363652404
aa(lp226
F0.5717986344791343
aF0.5860809294306143
aF0.03437339915601463
aa(lp227
F0.5577808216402322
aF0.5779534520213649
aF0.07759400397536204
aa(lp228
F0.5847589636930945
aF0.5400793125081549
aF0.07351119278453293
aa(lp229
F0.5746361748872053
aF0.5941213253207321
aF0.007953063326442323
aa(lp230
F0.5491023813146771
aF0.4756863336437994
aF0.11077314341646938
aa(lp231
F0.6414529351545092
aF0.5169859466416007
aF0.2682265690604612
aa(lp232
F0.47841807583951007
aF0.566183927146533
aF0.33275982728395787
aa(lp233
F0.4504492542100472
aF0.5650419440066026
aF0.392218791318939
aa(lp234
F0.5301462607423999
aF0.6657475569806073
aF0.23956539364046112
aa(lp235
F0.5524596083776088
aF0.5848541569050905
aF0.0732510212122418
aa(lp236
F0.5752979667784598
aF0.5894434952990677
aF0.04466212125120146
aa(lp237
F0.5713792678896381
aF0.6048749103550201
aF0.007484212846332295
aa(lp238
F0.5987792014864447
aF0.5600021800716191
aF0.1110829229192313
aa(lp239
F0.5656734040060034
aF0.5830759146326084
aF0.04144295854584179
aa(lp240
F0.5750672970854219
aF0.5847005344546541
aF0.0056791442941858785
aa(lp241
F0.5953689157088813
aF0.6302464630757747
aF0.08478370664733177
aa(lp242
F0.5473775430160671
aF0.5933698658034482
aF0.0864366640928016
aa(lp243
F0.6238363935641167
aF0.5540995897424428
aF0.1799353675751414
aa(lp244
F0.5731428804665079
aF0.6111206959906078
aF0.0023245788172313376
aa(lp245
F0.5882361095993441
aF0.48506341293446364
aF0.10205236312704208
aa(lp246
F0.5742190250962467
aF0.4894526586914704
aF0.26734615576594
aa(lp247
F0.46717968487099526
aF0.3540662801043105
aF0.3520824098232702
aa(lp248
F0.43648137301979006
aF0.3155829003290247
aF0.4264487390423275
aa(lp249
F0.5050617975269602
aF0.27368320698516235
aF0.48974309305853636
aa(lp250
F0.6467136919500902
aF0.38197764815237767
aF0.5202448685449407
aa(lp251
F0.6234827557382564
aF0.5360535196442164
aF0.564848708824582
aa(lp252
F0.5776447742330515
aF0.5128307525638092
aF0.37279588128591173
aa(lp253
F0.5629423497355863
aF0.6610624852170295
aF0.45714564403786445
aa(lp254
F0.6455996032882232
aF0.7765236958658333
aF0.4460308820922557
aa(lp255
F0.7097458915496317
aF0.8855608805618
aF0.41283898082045306
aa(lp256
F0.6360538037422607
aF0.9174770959759304
aF0.5227175784839709
aa(lp257
F0.7142120755517634
aF0.835189654188691
aF0.6674498160443829
aa(lp258
F0.750631018092595
aF0.8861883277916895
aF0.7158600653231564
aa(lp259
F0.6920908631751206
aF1.0474173930199042
aF0.7808323773719614
aa(lp260
F0.7642747905541092
aF1.0181289778720848
aF0.6920658118417704
aa(lp261
F0.7065056572932042
aF1.0244396602566408
aF0.7329123691612309
aa(lp262
F0.5523381701675537
aF0.9532490402211804
aF0.7719009540823127
aa(lp263
F0.4062472823241399
aF0.24668766045595436
aF0.5423859240709085
aa(lp264
F0.4480445398293267
aF0.3119891720576168
aF0.3812219085790057
aa(lp265
F0.5148090134460871
aF0.3178554638244384
aF0.3847026619097502
aa(lp266
F0.6586110002369755
aF0.3806628128949691
aF0.2658732832007343
aa(lp267
F0.623390967520723
aF0.5247535070930136
aF0.33615550176337755
aa(lp268
F0.5096817690733392
aF0.5821262228730636
aF0.4267985209420128
aa(lp269
F0.6031685037411116
aF0.71085227394658
aF0.4328546220627531
aa(lp270
F0.6936867876311072
aF0.7317421233640319
aF0.5503909843581812
aa(lp271
F0.7318497042409775
aF0.7764157883795367
aF0.6575025899041659
aa(lp272
F0.7531879195735272
aF0.6601709347927435
aF0.7691496645593566
aa(lp273
F0.7512558311799118
aF0.5491814673392024
aF0.6158451360906281
aa(lp274
F0.7001009090057686
aF0.4370766705352066
aF0.5104269997569374
aa(lp275
F0.7233191116188488
aF0.3222658358930153
aF0.620665384276653
aa(lp276
F0.6159243032892558
aF0.16008540273690464
aF0.6649560496469873
aa(lp277
F0.6166673962828609
aF0.09980085620727769
aF0.7923563484407047
aa(lp278
F0.7825899168890433
aF0.07935813571429651
aF0.7762680192303676
aa(lp279
F0.7579590800664195
aF0.038365263409090314
aF0.7918796927380808
aa(lp280
F0.7445043915211729
aF0.1116281265841247
aF0.6931047868054145
aa(lp281
F0.728451893515345
aF0.2688205941988137
aF0.6455774735312638
aa(lp282
F0.5608342500731174
aF0.2333890345129689
aF0.6996223697674562
aa(lp283
F0.6163170486449303
aF0.20494052649789446
aF0.6791752278085815
aa(lp284
F0.786655568188822
aF0.28614097333096794
aF0.7032915549059464
aa(lp285
F0.7328615304847478
aF0.37911695445847404
aF0.5535062529044676
aa(lp286
F0.6034772252072684
aF0.3932084332613314
aF0.5616077949013424
aa(lp287
F0.6227740750066572
aF0.4258012173508352
aF0.38840130942035256
aa(lp288
F0.6087587642168999
aF0.4682342715634132
aF0.25781148150912747
aa(lp289
F0.5743081669296916
aF0.5960065063844289
aF0.15810507171521682
aa(lp290
F0.6604658192360464
aF0.822120716797279
aF0.4649667612112233
aa(lp291
F0.44377296080550305
aF0.292352600121609
aF0.43921874357814394
aa(lp292
F0.4946902216026042
aF0.33327577585891227
aF0.430349444633847
aa(lp293
F0.522224151072393
aF0.41120880844156577
aF0.31692338942374126
aa(lp294
F0.573532429022622
aF0.4480032727315503
aF0.20526402946067934
aa(lp295
F0.5839831033455616
aF0.5271444543097438
aF0.15918780410756872
aa(lp296
F0.5561917494802376
aF0.5440007866573925
aF0.17802781799114548
aa(lp297
F0.5218237516295475
aF0.45979916358864953
aF0.17090467290802336
aa(lp298
F0.5304226445232426
aF0.6354437392734743
aF0.16175334799608257
aa(lp299
F0.5151074653006267
aF0.7429416187147979
aF0.21364996649762436
aa(lp300
F0.5685769489891868
aF0.6674314596495614
aF0.2977348940321915
aa(lp301
F0.6687197092846979
aF0.7248170995198053
aF0.4306330909410808
aa(lp302
F0.7495993019142155
aF0.7496772532877942
aF0.5681762018221809
aa(lp303
F0.35225930417065787
aF0.2882310966751875
aF0.7005720818429659
aa(lp304
F0.40627805204346096
aF0.34748358540192464
aF0.5465169103809407
aa(lp305
F0.5352826323419348
aF0.3376937858540427
aF0.4494694456407035
aa(lp306
F0.6455556970928361
aF0.42951698939821836
aF0.5867932595923172
aa(lp307
F0.5239163096740436
aF0.6920188891446578
aF0.4612041806415733
aa(lp308
F0.483347420123728
aF0.8698348643964634
aF0.4351665012724848
aa(lp309
F0.4755382937806371
aF0.9580190910808923
aF0.5391514905445954
aa(lp310
F0.483147020325292
aF1.0532816757301404
aF0.6793748110570336
aa(lp311
F0.38597852559836265
aF1.020615751588151
aF0.6670016061426717
aa(lp312
F0.41110377351524463
aF1.09640766527088
aF0.7935873324699311
aa(lp313
F0.3774436487636568
aF1.0842602911415724
aF0.7291210721605607
aa(lp314
F0.39025030608690914
aF1.1020680270131165
aF0.7567024440310717
aa(lp315
F0.4141124202170663
aF1.0045842335228117
aF0.6928155029871094
aa(lp316
F0.4621917872366231
aF0.8697307188595325
aF0.5645586665636796
aa(lp317
F0.4801411223593958
aF0.8931341240853401
aF0.4285280611777686
aa(lp318
F0.43742187647745817
aF0.8809574245949519
aF0.4859320683997275
aa(lp319
F0.572044707622811
aF0.8336084053799441
aF0.41151727567418805
aa(lp320
F0.6713421824309109
aF0.9468848944792382
aF0.49494469687099046
aa(lp321
F0.6801094642862956
aF0.9414028051096243
aF0.5617658436152384
aa(lp322
F0.712318523187445
aF0.846060282058646
aF0.715518059242835
aa(lp323
F0.5606989447157334
aF0.687820604182358
aF0.1611463885283267
aa(lp324
F0.5588305581136713
aF0.5116892284208566
aF0.09440465657967492
aa(lp325
F0.5612741533260288
aF0.5225984037355719
aF0.05874995794876945
aa(lp326
F0.5628051935731603
aF0.47883577008592637
aF0.1535826769492446
aa(lp327
F0.516326498794927
aF0.4553275500273728
aF0.2362931853819867
aa(lp328
F0.5705040203291192
aF0.9181340361696269
aF0.5328515010189215
aa(lp329
F0.6645387989853906
aF0.7481783532937717
aF0.5659822213410325
aa(lp330
F0.7118831943008002
aF0.6854126340442208
aF0.4662072925979483
aa(lp331
F0.6782498609107044
aF0.6213273905679456
aF0.3500730660739835
aa(lp332
F0.6138968415677868
aF0.7174292362366721
aF0.28009364575798135
aa(lp333
F0.5548952580693066
aF0.6629030550506303
aF0.33675497214774125
aa(lp334
F0.45145430169360573
aF0.6377405087935728
aF0.3656002982533984
aa(lp335
F0.5909329602471184
aF0.6706634967455254
aF0.24990348082692693
aa(lp336
F0.5431326456101356
aF0.5553480571579198
aF0.14745286372084074
aa(lp337
F0.49296957273966635
aF0.45359569149271894
aF0.2491925416795165
aa(lp338
F0.5834717442417219
aF0.43954357415989986
aF0.25371020271740374
aa(lp339
F0.5842904136390323
aF0.4531230362226455
aF0.18495614574355354
aa(lp340
F0.5422290509871098
aF0.6177771146475983
aF0.09776820782272884
aa(lp341
F0.5725659634218354
aF0.6059797691773025
aF0.05323666013774364
aa(lp342
F0.5601052574787947
aF0.7068276460454269
aF0.23768163505951848
aa(lp343
F0.4993115507182408
aF0.746522739482179
aF0.22150392786213874
aa(lp344
F0.5640774103169716
aF0.6453219437160924
aF0.07429844172625018
aa(lp345
F0.5495965589285556
aF0.6010665994763139
aF0.08947990981429098
aa(lp346
F0.5400839377317092
aF0.49803001238068606
aF0.12111030252248219
aa(lp347
F0.587925673636298
aF0.5549659416982009
aF0.05409528849919019
aa(lp348
F0.5621309570997036
aF0.6769901591923164
aF0.13348186419411281
aa(lp349
F0.6019954864962934
aF0.7819134312076166
aF0.2676681126241654
aa(lp350
F0.5694772272998888
aF0.6681965068126416
aF0.12659069871419454
aa(lp351
F0.5141383344040947
aF0.5166927113951099
aF0.18826543660545295
aa(lp352
F0.6179030336313018
aF0.3027666109207935
aF0.39224124888642947
aa(lp353
F0.4670262817568434
aF0.33272905724198
aF0.37010348930443693
aa(lp354
F0.5214741995997985
aF0.36958498421808716
aF0.29579103420311287
aa(lp355
F0.5619916252387713
aF0.4974235737407138
aF0.2009451611833491
aa(lp356
F0.6054901381655933
aF0.558792751794904
aF0.17549748063416004
aa(lp357
F0.6261085023651363
aF0.5536767785640309
aF0.3260539663095854
aa(lp358
F0.5068891713274526
aF0.5476659432491848
aF0.4650851139566031
aa(lp359
F0.5157843357927399
aF0.5599858371574328
aF0.6433368741693042
aa(lp360
F0.5498067095282283
aF0.7347432805126973
aF0.709641749033497
aa(lp361
F0.48732325285171896
aF0.8057100333837808
aF0.7088301100494758
aa(lp362
F0.6315895282707085
aF0.901417392257174
aF0.7068765544099247
aa(lp363
F0.7477945889808351
aF0.9689568728857897
aF0.7672429856506725
aa(lp364
F0.6048324192633812
aF0.5460932725459123
aF0.147563774513325
aa(lp365
F0.5748909846438937
aF0.5444492817771075
aF0.004802034026966062
aa(lp366
F0.5417309043649995
aF0.4978178104589745
aF0.14268802734790142
aa(lp367
F0.5342188434519947
aF0.46150449988334363
aF0.15361438034568142
aa(lp368
F0.4676033461859397
aF0.4030429338908737
aF0.3286798183853944
aa(lp369
F0.6304166895156665
aF0.4878269470127459
aF0.26820605126691666
aa(lp370
F0.6150753797177978
aF0.6687870344742042
aF0.2904551909192315
aa(lp371
F0.6792832470326325
aF0.5442630766391361
aF0.400088604095863
aa(lp372
F0.7448122556736516
aF0.5039330449513553
aF0.5303468374844371
aa(lp373
F0.686278700793568
aF0.6314150925286239
aF0.5449274706074237
aa(lp374
F0.7163112430911875
aF0.7361892312521563
aF0.48184631674756373
aa(lp375
F0.7243281237027996
aF0.9022699732427728
aF0.5843816125591709
aa(lp376
F0.5369938830224991
aF0.7320386547840998
aF0.18015306191221506
aa(lp377
F0.6084894851526002
aF0.6528127919923132
aF0.11607953822940616
aa(lp378
F0.5751537950066832
aF0.6210615879173417
aF0.029587410852432508
aa(lp379
F0.6283666690788534
aF0.5986812425942708
aF0.33402554173689136
aa(lp380
F0.5310591921913637
aF0.43962352411189853
aF0.2962759042794505
aa(lp381
F0.583580335659194
aF0.41103968474467545
aF0.3927383057940982
aa(lp382
F0.5188180678164585
aF0.4437662636690812
aF0.2509918828345777
aa(lp383
F0.5956455637186509
aF0.38714148559309
aF0.3165834686667031
aa(lp384
F0.5745513107017975
aF0.4363859777876407
aF0.2271063143904998
aa(lp385
F0.6573600837216351
aF0.43322258030267624
aF0.3432917789755323
aa(lp386
F0.5222425793532212
aF0.5370257599130361
aF0.5015861625497626
aa(lp387
F0.4676460743144571
aF0.6287343492558148
aF0.4299630905358246
aa(lp388
F0.4101839001353917
aF0.5113327405184275
aF0.44953703909424947
aa(lp389
F0.4717480513440617
aF0.6047630244036195
aF0.2909376000857439
aa(lp390
F0.564743177202845
aF0.6181514855665523
aF0.14644511725815718
aa(lp391
F0.5751637654978018
aF0.5815927092823273
aF0.003497637487546346
aa(lp392
F0.5318864962803617
aF0.3908914990078286
aF0.35208733537365966
aa(lp393
F0.5880743512271681
aF0.5438468874518703
aF0.23928919474380558
aa(lp394
F0.5654390734011859
aF0.5085719355022695
aF0.10221466763893404
aa(lp395
F0.573544471760622
aF0.5696669341130423
aF0.01311263682254884
aa(lp396
F0.5563277458272873
aF0.6612300184277733
aF0.13826369785135767
aa(lp397
F0.610629852374166
aF0.603395167897624
aF0.13698741055563507
aa(lp398
F0.6098331859929415
aF0.589566379597543
aF0.1635568522711103
aa(lp399
F0.562380315419675
aF0.5346176802269518
aF0.07962176151262197
aa(lp400
F0.5646659670261767
aF0.45509765253920026
aF0.1759416296719196
aa(lp401
F0.5488335239119253
aF0.5711719403898556
aF0.08799177292418801
aa(lp402
F0.49987155412569045
aF0.6823538849008364
aF0.2109920210525864
aa(lp403
F0.5518963425749555
aF0.7033098964644282
aF0.3264451174413483
aa(lp404
F0.509046851858639
aF0.5353823393201773
aF0.39577382587536675
aa(lp405
F0.4122853280218862
aF0.4674816625734633
aF0.4683766187703734
aa(lp406
F0.48951254788324317
aF0.398771760695447
aF0.39668888585930395
aa(lp407
F0.6261063999826912
aF0.291358881274563
aF0.47817132754903896
aa(lp408
F0.6607124655747788
aF0.4029324056643469
aF0.34548031722089556
aa(lp409
F0.5605595549835131
aF0.545733136825515
aF0.26743558766210446
aa(lp410
F0.5313096446460578
aF0.450387075415757
aF0.16520707204809054
aa(lp411
F0.5860858865408077
aF0.6684320111652915
aF0.3453741358886627
aa(lp412
F0.5781750642790157
aF0.7511905688612803
aF0.23811634086963043
aa(lp413
F0.5616608837577262
aF0.6330929119622444
aF0.0886287662679922
aa(lp414
F0.5332129830247586
aF0.5568669598123648
aF0.16648280000111929
aa(lp415
F0.5735014249235393
aF0.6088729137730606
aF0.01705913219824371
aa(lp416
F0.7297833757991099
aF0.34010313579999335
aF0.49618333011244636
aa(lp417
F0.7115409426888346
aF0.28374851234616133
aF0.4529750405059092
aa(lp418
F0.5888481121332962
aF0.33906064154058213
aF0.5384409460812793
aa(lp419
F0.49452579649510414
aF0.5124319131999737
aF0.5272400938153534
aa(lp420
F0.5241493324811523
aF0.6132761535506861
aF0.37189508888340345
aa(lp421
F0.6493949774432473
aF0.5766448418095123
aF0.37305502856341993
aa(lp422
F0.639549719731686
aF0.585415115931493
aF0.5360033173549378
aa(lp423
F0.6553828608203286
aF0.7351265612869812
aF0.567527018355066
aa(lp424
F0.5737945014261645
aF0.8094577397140754
aF0.5585080038097975
aa(lp425
F0.6387549830343484
aF0.8270075526654471
aF0.5846999680115977
aa(lp426
F0.7025198434344414
aF0.8501535638674426
aF0.39973073793313507
aa(lp427
F0.6890284918441182
aF0.41947294610726743
aF0.7625563695998623
aa(lp428
F0.556065174436446
aF0.5210827589256857
aF0.7878493735331049
aa(lp429
F0.5434710494591346
aF0.6250889036178093
aF0.6436402149756377
aa(lp430
F0.44059520602944824
aF0.6051490113893042
aF0.5240132751330607
aa(lp431
F0.5181707914800702
aF0.7553644704415697
aF0.5200051872022015
aa(lp432
F0.49841235291498
aF0.8487527626915865
aF0.6815567105750294
aa(lp433
F0.5557362290089984
aF0.8603271862657098
aF0.7978061269914298
aa(lp434
F0.4448654695203257
aF0.8006643913455158
aF0.7155043391028315
aa(lp435
F0.3160438748903515
aF0.8376566313658687
aF0.7990621462006162
aa(lp436
F0.4051014072635134
aF0.8053639182790712
aF0.7885782476308436
aa(lp437
F0.33220838404460223
aF0.7146076692915504
aF0.651912843426115
aa(lp438
F0.515317794596489
aF0.7617880719923329
aF0.6247389006621316
aa(lp439
F0.623592543043111
aF0.8374658588065603
aF0.7188584993289444
aa(lp440
F0.6391302517194983
aF1.024505493240357
aF0.6578767297595445
aa(lp441
F0.5855927403894693
aF0.5545711895842627
aF0.2103565849354032
aa(lp442
F0.5403012973466306
aF0.6715255530690794
aF0.17684176934970097
aa(lp443
F0.5873632885208144
aF0.5440349166265507
aF0.1304429202677695
aa(lp444
F0.5955408184758455
aF0.5720587006927733
aF0.13018109199011194
aa(lp445
F0.5753363830746534
aF0.5379278083046938
aF0.011011957227948522
aa(lp446
F0.5626149992308349
aF0.6215748567354895
aF0.1108934745430938
aa(lp447
F0.5688151809997367
aF0.54608970152562
aF0.049295436915351855
aa(lp448
F0.5333422258429634
aF0.699605362494803
aF0.12931974002893806
aa(lp449
F0.8175611421270697
aF0.8485161741793975
aF0.7576917871440902
aa(lp450
F0.7983156320754258
aF0.9733567173980517
aF0.7916427079871821
aa(lp451
F0.7620616731709622
aF1.0048036578716175
aF0.67621714718973
aa(lp452
F0.600714954645669
aF0.29769994801613264
aF0.4071471488742563
aa(lp453
F0.5474848397726179
aF0.36444713239112825
aF0.3399734864390719
aa(lp454
F0.5779607980485508
aF0.4937463186097226
aF0.27667477102354354
aa(lp455
F0.6176923021028511
aF0.5629026724052477
aF0.14295680523101115
aa(lp456
F0.5766724851988658
aF0.5815568254502971
aF0.016094736004663535
aa(lp457
F0.5667473881932307
aF0.5879399320446421
aF0.04688480311830965
aa(lp458
F0.5652046854659847
aF0.5725300899398921
aF0.035115945896264565
aa(lp459
F0.5755513344855909
aF0.5662841096699139
aF0.07921974891797082
aa(lp460
F0.6087024148518914
aF0.49952934743931815
aF0.24954502022910185
aa(lp461
F0.632665768856806
aF0.636974568683985
aF0.3474237789947921
aa(lp462
F0.6290825341530605
aF0.7354314515415354
aF0.3197160761842735
aa(lp463
F0.7203917016685648
aF0.7889490625721256
aF0.4783778895683553
aa(lp464
F0.7039707001002216
aF0.940859280000991
aF0.507412687382591
aa(lp465
F0.6233430060803374
aF0.8562944031757218
aF0.49280349731089335
aa(lp466
F0.4893537028447102
aF0.8541969849240346
aF0.4238361678205318
aa(lp467
F0.5619660666384643
aF0.7636632728425882
aF0.38076096076987737
aa(lp468
F0.6420185252859487
aF0.6337648326422725
aF0.5062110179816764
aa(lp469
F0.6948910571582738
aF0.6051856075528954
aF0.4604062885012722
aa(lp470
F0.6508249416275175
aF0.5742559612997633
aF0.6290907154476038
aa(lp471
F0.5717423441442593
aF0.577107806754629
aF0.403221211165413
aa(lp472
F0.6518372738203645
aF0.6444174379867899
aF0.24435071283962745
aa(lp473
F0.5462352959071424
aF0.5106867561555384
aF0.1860179553581637
aa(lp474
F0.5774441084427685
aF0.6108749574703503
aF0.018393287488100273
aa(lp475
F0.5950186420753575
aF0.5800896031655501
aF0.13068751763561695
aa(lp476
F0.5421360302238489
aF0.5665476998626849
aF0.21549115246653816
aa(lp477
F0.567825947688336
aF0.44976382818227123
aF0.2539317023778258
aa(lp478
F0.5432141046002464
aF0.49984281039060996
aF0.2817103353906152
aa(lp479
F0.5387838982425985
aF0.6583617499738823
aF0.20980873538749406
aa(lp480
F0.5561946332190912
aF0.6569666167835227
aF0.10664808270280411
aa(lp481
F0.5635673266040201
aF0.6425953020173294
aF0.09086339746372102
aa(lp482
F0.5784031774377097
aF0.6245596938388391
aF0.07441849769649621
aa(lp483
F0.5164491009173169
aF0.6845046619019775
aF0.1710236787343501
aa(lp484
F0.6036215777716074
aF0.6694066006851902
aF0.15981299761275933
aa(lp485
F0.5761304233699237
aF0.7345435376486378
aF0.27367989572961354
aa(lp486
F0.5754573843764158
aF0.693997735531235
aF0.4327144298771545
aa(lp487
F0.46746309875004416
aF0.6277872345294928
aF0.4891911364470195
aa(lp488
F0.46540333403624445
aF0.7144654783595978
aF0.38097578615949934
aa(lp489
F0.5106982363322892
aF0.6394269000617868
aF0.4468393374870576
aa(lp490
F0.6023023886510904
aF0.7099327405900475
aF0.5910367303055527
aa(lp491
F0.38333878879081834
aF0.9095250644379869
aF0.5508415261609123
aa(lp492
F0.44739303823298954
aF0.8903187272265746
aF0.4677928827415492
aa(lp493
F0.5407324091372767
aF0.7525564001255116
aF0.5314057914934692
aa(lp494
F0.38885914901542373
aF0.6718789191167319
aF0.5566924352836574
aa(lp495
F0.45780314386891685
aF0.5576884747883742
aF0.5894577429864473
aa(lp496
F0.5016605061207173
aF0.4677505496236592
aF0.632263974509272
aa(lp497
F0.5657739109137908
aF0.5296550378242957
aF0.5148490785500551
aa(lp498
F0.5346652223853494
aF0.4609955523950451
aF0.4486893220320929
aa(lp499
F0.7101442250115529
aF0.38687971424924844
aF0.44691245884622
aa(lp500
F0.6828408202817412
aF0.27538335780653295
aF0.5880997278766631
aa(lp501
F0.7736918388061111
aF0.23156610113103065
aF0.7008142821168679
aa(lp502
F0.7575088068721827
aF0.24184415907796303
aF0.5847157108075639
aa(lp503
F0.29895712016658677
aF0.6768531032223525
aF0.7748361644107087
aa(lp504
F0.4014215515752973
aF0.6522374796070103
aF0.6668547484528706
aa(lp505
F0.6290034755612274
aF0.90831261683602
aF0.4374730411278834
aa(lp506
F0.7255492002167385
aF0.8944247606399905
aF0.5191994147722733
aa(lp507
F0.5809476459108294
aF0.8998542699055812
aF0.48089771914861973
aa(lp508
F0.6744141048877945
aF0.8286682269555288
aF0.42389663688882906
aa(lp509
F0.6260389655147469
aF0.731350144811297
aF0.27747065940381826
aa(lp510
F0.48107222996698795
aF0.6468459515735507
aF0.2749019501171261
aa(lp511
F0.611159491742218
aF0.6908499429540236
aF0.21033651068635484
aa(lp512
F0.5159367801372258
aF0.7135630050334834
aF0.18115557988817238
aa(lp513
F0.6041272429482147
aF0.593516206552506
aF0.12176180211552562
aa(lp514
F0.5521987935290805
aF0.49187650915904435
aF0.08632730325980278
aa(lp515
F0.5717863462153138
aF0.6126603019873056
aF0.03284097108625677
aa(lp516
F0.5317492036685654
aF0.5251046422736037
aF0.13930853026183146
aa(lp517
F0.541945903267783
aF0.4691907797835111
aF0.23866740243453188
aa(lp518
F0.6862014995317568
aF0.6431055331829327
aF0.356870505715467
aa(lp519
F0.6212193180508145
aF0.5795915502501217
aF0.2288352705175142
aa(lp520
F0.632208149552424
aF0.50782905382476
aF0.30503917431421756
aa(lp521
F0.5182775654432759
aF0.6350284433892834
aF0.7095766653000714
aa(lp522
F0.6166625119103708
aF0.6550431461026212
aF0.7280524146863574
aa(lp523
F0.718221580012993
aF0.7691230833691378
aF0.7758238402164301
aa(lp524
F0.6384534540742349
aF0.6080683060703522
aF0.30829404746136063
aa(lp525
F0.481451327663454
aF0.6628573230845984
aF0.35395580640661906
aa(lp526
F0.47051172509576467
aF0.5340399057236439
aF0.39040901599824995
aa(lp527
F0.5122968829801053
aF0.3473086195737032
aF0.36386205104186314
aa(lp528
F0.6372704071891178
aF0.4173106084992654
aF0.318089990110438
aa(lp529
F0.5999592937934491
aF0.5425376729889203
aF0.11683840416489809
aa(lp530
F0.5724185314615072
aF0.6281119880145083
aF0.025416477269510643
aa(lp531
F0.5914880748535976
aF0.5607830426365187
aF0.06722084797268338
aa(lp532
F0.6491452422816156
aF0.5226274519004734
aF0.23354936237096188
aa(lp533
F0.5265038044802308
aF0.5142826846802702
aF0.19388366502893054
aa(lp534
F0.5515450188111914
aF0.6612824776709332
aF0.20131539204908427
aa(lp535
F0.6114348185644787
aF0.717756252629334
aF0.2699200042686178
aa(lp536
F0.4318768596270269
aF0.48641617310880125
aF0.7072092934863745
aa(lp537
F0.5157232310746264
aF0.5890958700602333
aF0.683880310488618
aa(lp538
F0.6537202525937588
aF0.5779489050410294
aF0.6837447295668119
aa(lp539
F0.7550272822219148
aF0.6665841723883463
aF0.7044744660312301
aa(lp540
F0.7075011589865084
aF0.6165171707125647
aF0.6607045836611412
aa(lp541
F0.7691238260042312
aF0.6676454445455522
aF0.576905708140452
aa(lp542
F0.7596180102917518
aF0.7993319247378994
aF0.7053062549653709
aa(lp543
F0.7737719102521741
aF0.8678016957893939
aF0.7214292821758227
aa(lp544
F0.7422818352472701
aF0.9668054986947926
aF0.6320722572392636
aa(lp545
F0.6290580431047392
aF1.083104183431944
aF0.7084948628525821
aa(lp546
F0.3200646555939729
aF0.1372591149636538
aF0.7648298688879747
aa(lp547
F0.4947197792632421
aF0.44669936206442273
aF0.5490696278307698
aa(lp548
F0.5641384513490668
aF0.549058211968436
aF0.4465386431919536
aa(lp549
F0.5758501841280264
aF0.557752925485429
aF0.49444157775366904
aa(lp550
F0.5028827403090201
aF0.5003811991443432
aF0.5480334071240107
aa(lp551
F0.35468268838393985
aF0.4352340231409119
aF0.6275165888007773
aa(lp552
F0.46526685108252597
aF0.41012113688070695
aF0.6321241814835864
aa(lp553
F0.5058917370451529
aF0.3210888648668784
aF0.720438915760955
aa(lp554
F0.4547141600215008
aF0.14290406766147584
aF0.6862107523889956
aa(lp555
F0.3986995964534944
aF0.0963721613582956
aF0.7318209625715716
aa(lp556
F0.38617715257454266
aF0.11850103142880447
aF0.7420425325527911
aa(lp557
F0.34222982232654897
aF0.14681935710392569
aF0.798342944878317
aa(lp558
F0.37135524015464094
aF0.223109109339942
aF0.6573546997843396
aa(lp559
F0.4056769695800525
aF0.22214565855301904
aF0.6422103472305674
aa(lp560
F0.5875210079297859
aF0.5789675651196007
aF0.13066834346422393
aa(lp561
F0.5158317437541209
aF0.42778504590031907
aF0.22559441154070303
aa(lp562
F0.476777106143765
aF0.533088049992292
aF0.3462738894193234
aa(lp563
F0.6079397267650763
aF0.6592711649543709
aF0.38937142132748603
aa(lp564
F0.6677503786093172
aF0.8098537744222037
aF0.2968822740200393
aa(lp565
F0.6743258388478223
aF0.7793664480011657
aF0.33584800881656973
aa(lp566
F0.6865812552040087
aF0.7246480312888113
aF0.49772292759318626
aa(lp567
F0.7339302187736753
aF0.7536581621926091
aF0.5803221572961457
aa(lp568
F0.7351058603981104
aF0.9361809451309075
aF0.5117094308735051
aa(lp569
F0.7407993925766956
aF0.8266649214479358
aF0.49379012135234546
aa(lp570
F0.6915282853512703
aF0.7014570902963932
aF0.4530957008199581
aa(lp571
F0.7591765232504593
aF0.6850972716512753
aF0.6073852329628141
aa(lp572
F0.7186025915534249
aF0.5408637590797819
aF0.6855312390456697
aa(lp573
F0.7375637715357541
aF0.4463704550911244
aF0.7782585336345025
aa(lp574
F0.592087635081708
aF0.4655053510621997
aF0.7831172803811908
aa(lp575
F0.609984174587972
aF0.3906830331154625
aF0.765529303553052
aa(lp576
F0.5764041847547663
aF0.578925061976862
aF0.01432745687654098
aa(lp577
F0.5425727947454936
aF0.6988406105799274
aF0.14718038890266935
aa(lp578
F0.6329828477862343
aF0.7154240699938827
aF0.18655250923466637
aa(lp579
F0.5878054337603429
aF0.671474190079302
aF0.3501044863192726
aa(lp580
F0.4571751275068472
aF0.564834298405184
aF0.42307357986417493
aa(lp581
F0.5830093716545501
aF0.5700679047184587
aF0.4932710422872614
aa(lp582
F0.5906768008177081
aF0.49392007884808
aF0.5647442813187501
aa(lp583
F0.7128548071909868
aF0.38940126896329885
aF0.5302228594405073
aa(lp584
F0.621174618290164
aF0.5588055336361487
aF0.4962802191441461
aa(lp585
F0.5130171458669182
aF0.5220497991991517
aF0.5711203301543826
aa(lp586
F0.5199091582409563
aF0.4175687068175414
aF0.3386298743173579
aa(lp587
F0.588536639464842
aF0.5324014197008102
aF0.19970744699700405
aa(lp588
F0.5930905285480117
aF0.5404912742716447
aF0.10629335460121024
aa(lp589
F0.5188391422613924
aF0.6761536084346923
aF0.15858602828866558
aa(lp590
F0.5760410199860329
aF0.6396121423772496
aF0.2953289057059464
aa(lp591
F0.541108913613263
aF0.7932543331050546
aF0.3905118791612299
aa(lp592
F0.581096550620426
aF0.5163143603039086
aF0.28128060158315027
aa(lp593
F0.5597294569511317
aF0.4575663497912266
aF0.22285756202332285
aa(lp594
F0.5790968889581901
aF0.5592749791579481
aF0.170603463008289
aa(lp595
F0.5339433081054222
aF0.7079950641356151
aF0.19455203686218311
aa(lp596
F0.5510714336404926
aF0.602029460284077
aF0.10461688971162363
aa(lp597
F0.5730681351937629
aF0.6122932998356961
aF0.01691786668747062
aa(lp598
F0.6051267658209667
aF0.5642017014261129
aF0.16895559655244485
aa(lp599
F0.6535554228815252
aF0.7376865342071367
aF0.24256657184706595
aa(lp600
F0.4986598076471791
aF0.7121248689314694
aF0.24115463578820961
aa(lp601
F0.5030480030006772
aF0.6422410865903281
aF0.23970099054498872
aa(lp602
F0.5797903975362036
aF0.6097338392110545
aF0.18409359856446025
aa(lp603
F0.6072163215739121
aF0.5242642285652304
aF0.10994614863784831
aa(lp604
F0.5922221513305983
aF0.6085999286566237
aF0.20657043236812012
aa(lp605
F0.5558448855236656
aF0.5070043841390215
aF0.13581084110573646
aa(lp606
F0.5697304239486528
aF0.5757637512793304
aF0.00265306402505745
aa(lp607
F0.5594151169432315
aF0.6293791103192886
aF0.1874159896526571
aa(lp608
F0.5109671565868859
aF0.7301787088732807
aF0.24885818213830496
aa(lp609
F0.5452735695505451
aF0.5872327705675745
aF0.1773162323851996
aa(lp610
F0.5670446032318496
aF0.5273571806090114
aF0.2810544897287612
aa(lp611
F0.6665323407139976
aF0.3954169078481139
aF0.29677586195327843
aa(lp612
F0.6758144957180233
aF0.28133421067845044
aF0.4588291336056973
aa(lp613
F0.5912706226972138
aF0.2010034232359787
aF0.5574444980466468
aa(lp614
F0.6546525363580235
aF0.31545223921988697
aF0.5711632732652574
aa(lp615
F0.7354904195940584
aF0.21931587200267813
aF0.6960081715611506
aa(lp616
F0.756545021387306
aF0.3554332165844757
aF0.7544906692040065
aa(lp617
F0.8005762444403691
aF0.39291183563087423
aF0.6803623926357888
aa(lp618
F0.6853368436165306
aF0.2640677670979134
aF0.7013380621502474
aa(lp619
F0.5380320110510296
aF0.3807173011447024
aF0.7295275057568661
aa(lp620
F0.44738959878181456
aF0.4267064537973232
aF0.6889559717315313
aa(lp621
F0.4439465166462013
aF0.5528495826218154
aF0.6043607470666629
aa(lp622
F0.5584813293236925
aF0.582732377578736
aF0.6900533850043256
aa(lp623
F0.4922670051904279
aF0.6428193912648812
aF0.6467124199756187
aa(lp624
F0.5122597155655474
aF0.7932167713592206
aF0.5935024749067116
aa(lp625
F0.4435596492924154
aF0.9534896388123988
aF0.5758351596784278
aa(lp626
F0.3884606001692751
aF0.933923704555665
aF0.5172774018728228
aa(lp627
F0.3638595347317159
aF0.9759482116610971
aF0.5801534364289876
aa(lp628
F0.527703999580082
aF0.9797091997099506
aF0.6750395263994196
aa(lp629
F0.6514143573847693
aF1.0494110050300038
aF0.7709462535586278
aa(lp630
F0.6885844765163514
aF0.8892211299436685
aF0.7107106553880069
aa(lp631
F0.4677311336271818
aF0.7163049534523265
aF0.3819717156760398
aa(lp632
F0.8188221310368445
aF0.7806613839957328
aF0.7538634075973797
aa(lp633
F0.779440497458783
aF0.6955818813851073
aF0.6671423756540031
aa(lp634
F0.7360181040143553
aF0.6733080396517206
aF0.6643066012940002
aa(lp635
F0.7629307806715149
aF0.6733189342364165
aF0.556647353488447
aa(lp636
F0.5851486374201896
aF0.6333793197218421
aF0.561607065167686
aa(lp637
F0.5332604485361585
aF0.5350853098162405
aF0.4845614671618934
aa(lp638
F0.5784040726352566
aF0.5007477871975127
aF0.5590530281679997
aa(lp639
F0.5268167084107089
aF0.6667198727628951
aF0.46968965720764655
aa(lp640
F0.5383784373062251
aF0.7408095860130002
aF0.3588844839431685
aa(lp641
F0.47295040693190726
aF0.8733398167532267
aF0.3890722316586341
aa(lp642
F0.4139603717321923
aF0.8270486933679
aF0.4696398735875148
aa(lp643
F0.5852173489733095
aF0.8571978458753444
aF0.5135170373045788
aa(lp644
F0.7413800253740904
aF0.8962365947355087
aF0.5261567290071232
aa(lp645
F0.6498276410979085
aF0.7638958503910555
aF0.4725578141311093
aa(lp646
F0.601874614727244
aF0.6032038774800139
aF0.39093027383122925
aa(lp647
F0.5231303899318749
aF0.45481078059148333
aF0.34417807737056344
aa(lp648
F0.6305728196183739
aF0.3616887180699691
aF0.2912903931462821
aa(lp649
F0.4525117627734926
aF0.9655953566591018
aF0.7543149929854485
aa(lp650
F0.3736325702338939
aF0.835693356298824
aF0.692670162371263
aa(lp651
F0.5348967755989138
aF0.8580256939619769
aF0.6868202270335514
aa(lp652
F0.5383936047938158
aF0.6763082344749498
aF0.7243524794625967
aa(lp653
F0.5801564618317773
aF0.4959303213295219
aF0.7631511208774626
aa(lp654
F0.5473071653315462
aF0.39516016434762924
aF0.646473899528216
aa(lp655
F0.47502882167503163
aF0.4918512739608056
aF0.5100802191022616
aa(lp656
F0.4308019875255898
aF0.4691540218189348
aF0.4299071224026045
aa(lp657
F0.605452354319304
aF0.3946493159934196
aF0.369421405212075
aa(lp658
F0.6707211521560973
aF0.3591333975620974
aF0.3834147295539729
aa(lp659
F0.6280255314568297
aF0.48234637462942437
aF0.37111394962030025
aa(lp660
F0.5712946129512942
aF0.4962956301969226
aF0.18555415981865553
aa(lp661
F0.573680741964294
aF0.5762109510068255
aF0.04472662744661067
aa(lp662
F0.46885948468616845
aF0.9064650019609383
aF0.49352644038859905
aa(lp663
F0.6974707486153379
aF0.5399990903240779
aF0.4747959873707912
aa(lp664
F0.621149044172814
aF0.30342284059741154
aF0.5492556331774525
aa(lp665
F0.5648022516807487
aF0.2618851919458413
aF0.46819532625667515
aa(lp666
F0.4365072210744238
aF0.3129279765677276
aF0.46274975230489473
aa(lp667
F0.3666359845266839
aF0.3293734376309194
aF0.5681206434043515
aa(lp668
F0.31771450742763063
aF0.24296401443695922
aF0.7352429314071336
aa(lp669
F0.3311281002380319
aF0.4118316822673286
aF0.7544884737192454
aa(lp670
F0.47760751164514725
aF0.2767526006011443
aF0.7677881481688108
aa(lp671
F0.4334224987550911
aF0.22723308684611165
aF0.611989685277297
aa(lp672
F0.4446731608430563
aF0.20770871438929442
aF0.540007824860095
aa(lp673
F0.47478838164685766
aF0.8409683901688672
aF0.3382097853483549
aa(lp674
F0.5333054449076851
aF0.7503058607343719
aF0.2234863795061185
aa(lp675
F0.6462475334809693
aF0.6835598252504613
aF0.24281707984119738
aa(lp676
F0.5939976754543872
aF0.5859387092069602
aF0.1507852164157983
aa(lp677
F0.58802250280682
aF0.6009586874079115
aF0.06657558712520616
aa(lp678
F0.5477773827588424
aF0.527314301891035
aF0.10863804750008255
aa(lp679
F0.5896813009006115
aF0.5968235637594534
aF0.06633109493258012
aa(lp680
F0.441392312440204
aF0.17861051353111626
aF0.5684141529112425
aa(lp681
F0.42492670552775685
aF0.12420193340926503
aF0.6912006244381736
aa(lp682
F0.4480631039542191
aF0.21580015106469527
aF0.7361615412239786
aa(lp683
F0.4955459192449583
aF0.2745202737567631
aF0.6934405247446968
aa(lp684
F0.3916896195546899
aF0.3835619882315143
aF0.6399940348512209
aa(lp685
F0.40079967170052755
aF0.5353652947247634
aF0.557514885724517
aa(lp686
F0.5744444006946282
aF0.5759378426348332
aF0.004268856202226612
aa(lp687
F0.6051279038218775
aF0.696208243870023
aF0.4119816910278882
aa(lp688
F0.571161493853285
aF0.6575019245947451
aF0.49989725444620464
aa(lp689
F0.48542032936193413
aF0.5310940971831573
aF0.4237031944627753
aa(lp690
F0.47365018517665813
aF0.6117982627844246
aF0.4796726548700976
aa(lp691
F0.5685615560803815
aF0.6578771531135306
aF0.3655438653950187
aa(lp692
F0.5363101653049636
aF0.6174395693305561
aF0.25294662448102045
aa(lp693
F0.5219470835085208
aF0.6290240827242669
aF0.18852605587591792
aa(lp694
F0.5970245770264426
aF0.4751176246514699
aF0.10997164429011007
aa(lp695
F0.5749486301639566
aF0.5474690771876936
aF0.010319454777420757
aa(lp696
F0.5634537437087619
aF0.6452971398019958
aF0.1842056045724803
aa(lp697
F0.5628189102079779
aF0.5739038851897413
aF0.22691334821709308
aa(lp698
F0.4627616218313123
aF0.5848247244491176
aF0.31906306976374466
aa(lp699
F0.5768858277601446
aF0.5717254872166638
aF0.16609661091183325
aa(lp700
F0.5296799096534146
aF0.7390841609179134
aF0.19863880906338852
aa(lp701
F0.61619135142427
aF0.5700597864710559
aF0.4295324280717558
aa(lp702
F0.6804392483343613
aF0.7308623815249988
aF0.3376562059159481
aa(lp703
F0.577951759224753
aF0.6745268395313566
aF0.30212079412509985
aa(lp704
F0.6378117670535909
aF0.4734976834757102
aF0.7204008458823677
aa(lp705
F0.4696605757745915
aF0.42408113660227165
aF0.700689174942867
aa(lp706
F0.4886341140876475
aF0.29477595889934377
aF0.6263551142533264
aa(lp707
F0.42613964246274283
aF0.30428589755734214
aF0.4871357424065356
aa(lp708
F0.577762214370285
aF0.2532168050672261
aF0.45079835546293884
aa(lp709
F0.624663792696118
aF0.3660850706817392
aF0.4053441024769109
aa(lp710
F0.5195831965345032
aF0.49509696475206855
aF0.35621336895940114
aa(lp711
F0.5037344947924218
aF0.5610006303716149
aF0.4448823453252124
aa(lp712
F0.6412876752404755
aF0.6219053314574233
aF0.36949334534882505
aa(lp713
F0.5749722715325561
aF0.6793605594013472
aF0.22742713905365913
aa(lp714
F0.5790764235018294
aF0.657174595340414
aF0.07310509112354761
aa(lp715
F0.5904060035176664
aF0.6714886369229753
aF0.13579663846373916
aa(lp716
F0.5640023446957579
aF0.5545600987676256
aF0.04986078763957185
aa(lp717
F0.547589735712104
aF0.5496048420722566
aF0.08211730604651218
aa(lp718
F0.5718998347222416
aF0.6196900571446805
aF0.009174538471042304
aa(lp719
F0.5723331237217877
aF0.6192904828782567
aF0.021280324704953824
aa(lp720
F0.5543574571588955
aF0.5279396788566432
aF0.06861701421498534
aa(lp721
F0.513970942254948
aF0.45866676017127944
aF0.2440651622879967
aa(lp722
F0.5273312018439713
aF0.37025258524505883
aF0.29719768581763567
aa(lp723
F0.5657240465938632
aF0.4264725726087065
aF0.1968319782340805
aa(lp724
F0.5515101815444619
aF0.48768100853272844
aF0.1016853303156256
aa(lp725
F0.5741894975249621
aF0.6071225679960955
aF0.004987689557456588
aa(lp726
F0.5727688177570385
aF0.5465682111055118
aF0.021595198672624785
aa(lp727
F0.5609365753070272
aF0.6093340928451231
aF0.05504707431095888
aa(lp728
F0.6253191422933296
aF0.6816339188863466
aF0.21203016313480472
aa(lp729
F0.5913865652730271
aF0.5948335067111699
aF0.17953197661559878
aa(lp730
F0.5544901707344567
aF0.5105654968412803
aF0.07579000239200565
aa(lp731
F0.590410903017242
aF0.6815061868344917
aF0.1047853562061686
aa(lp732
F0.5853955854395299
aF0.6705733556148421
aF0.298472057198559
aa(lp733
F0.5642151590453969
aF0.697565953591829
aF0.37772406785082524
aa(lp734
F0.5389666056421774
aF0.8188508663344096
aF0.48410341663073564
aa(lp735
F0.5310921459002831
aF0.6922555542081448
aF0.40262048823196644
aa(lp736
F0.5573705285321198
aF0.5214832617319999
aF0.3306856354380755
aa(lp737
F0.5568576540250211
aF0.5782108805530852
aF0.14352503006406092
aa(lp738
F0.6189720251217342
aF0.4266262499337806
aF0.21280081966491757
aa(lp739
F0.6079195853606434
aF0.5242394859421439
aF0.17929704304829885
aa(lp740
F0.5686850130584964
aF0.6032682481052987
aF0.023482241279539552
aa(lp741
F0.5783121580403652
aF0.5892709061445418
aF0.02989456667900994
aa(lp742
F0.5889480325617616
aF0.6314798268978317
aF0.11235184208789058
aa(lp743
F0.600326479159508
aF0.662815170048722
aF0.16584416143292424
aa(lp744
F0.6102012191034812
aF0.6508614614854661
aF0.2549474452919513
aa(lp745
F0.5916281552201242
aF0.48502381160047986
aF0.20341099062122225
aa(lp746
F0.5985018240137201
aF0.567636006100373
aF0.17012666249097458
aa(lp747
F0.5852102700765118
aF0.48467667020651845
aF0.17747360705151252
aa(lp748
F0.5535840687722511
aF0.48917246365901595
aF0.1827131825685564
aa(lp749
F0.5761963244231172
aF0.600956914612534
aF0.0295943265404782
aa(lp750
F0.5736716729998504
aF0.5671620659578244
aF0.010187215972507692
aa(lp751
F0.5484263613408533
aF0.5604537600510888
aF0.09953357893955844
aa(lp752
F0.5324989089484641
aF0.4387337991743567
aF0.2310655623969809
aa(lp753
F0.4702547504710623
aF0.3408621278240427
aF0.3412733480096039
aa(lp754
F0.44170129777597866
aF0.3099139658525438
aF0.5018346766321311
aa(lp755
F0.5939919910024779
aF0.4016760912314835
aF0.44028584810314975
aa(lp756
F0.678511261912672
aF0.29634795654479545
aF0.499548392400412
aa(lp757
F0.6778805143042617
aF0.44297027056771354
aF0.38624577438949426
aa(lp758
F0.6100031745150811
aF0.39035280617792645
aF0.35055397246542824
aa(lp759
F0.7159397450978833
aF0.4094078915804507
aF0.5005372510836862
aa(lp760
F0.7566045683968742
aF0.4972717612467559
aF0.5584799949102004
aa(lp761
F0.7095240380635275
aF0.4949487021077643
aF0.5416217655565454
aa(lp762
F0.6640585935644489
aF0.6807159190914396
aF0.5634477181127665
aa(lp763
F0.7522360714101117
aF0.8403833759384178
aF0.6074046860127662
aa(lp764
F0.751810599913899
aF0.8709965879849039
aF0.7452467935779028
aa(lp765
F0.8329498154315
aF0.7895284295124594
aF0.796034969556767
aa(lp766
F0.821023713285279
aF0.817253891352407
aF0.7228513737566019
aa(lp767
F0.7246900300279071
aF0.8762917554693761
aF0.7010077007358102
aa(lp768
F0.772762324248519
aF1.0042879312313462
aF0.6615546234490108
aa(lp769
F0.5161519092864968
aF0.6158662341253112
aF0.40061679791522925
aa(lp770
F0.43916867010344884
aF0.5355133611548846
aF0.42747825225179076
aa(lp771
F0.4257333768264537
aF0.47659479973972
aF0.47100702166056085
aa(lp772
F0.5451771054082896
aF0.6004318210715023
aF0.3743926539189139
aa(lp773
F0.36997730986438343
aF0.8578828568449426
aF0.63771577794121
aa(lp774
F0.5271928355160334
aF0.7579354299768535
aF0.7030668483257622
aa(lp775
F0.4152946474589144
aF0.7311539527874902
aF0.593843568095316
aa(lp776
F0.44583056742264765
aF0.5914099791259816
aF0.5373800272614679
aa(lp777
F0.3831560799936844
aF0.47539513966242974
aF0.5739316237274662
aa(lp778
F0.49638826934082153
aF0.35323574945621494
aF0.5874086251187628
aa(lp779
F0.5557609899166551
aF0.8215450733112541
aF0.5996864342221783
aa(lp780
F0.5847348241605507
aF0.7326199430847754
aF0.4354483680496931
aa(lp781
F0.5429754160842295
aF0.6842442628234582
aF0.3649170203828301
aa(lp782
F0.49671182774438566
aF0.6765533671180766
aF0.23847623684570235
aa(lp783
F0.6149599651782768
aF0.5480142138601016
aF0.21029041013006983
aa(lp784
F0.5712263884797957
aF0.5762306164777562
aF0.037546163636721454
aa(lp785
F0.5626386839078971
aF0.557204663623866
aF0.08424846046965993
aa(lp786
F0.6413601145529968
aF0.5354985052378696
aF0.2118661213715119
aa(lp787
F0.5925469846745455
aF0.5979477428407634
aF0.06654336822398425
aa(lp788
F0.5712847179212042
aF0.5897299387101558
aF0.23086076022797253
aa(lp789
F0.4867743695519743
aF0.45904565569538
aF0.26689489158474705
aa(lp790
F0.5630938841527489
aF0.4840828345816952
aF0.24059578759516845
aa(lp791
F0.48685424281982914
aF0.39877090004641086
aF0.3686202383724473
aa(lp792
F0.5400217746980551
aF0.4203205217820123
aF0.41884439798840173
aa(lp793
F0.5870607822364984
aF0.5174716038499314
aF0.15710062585588852
aa(lp794
F0.5697095480996158
aF0.5798123793965796
aF0.001451842867852715
aa(lp795
F0.5736219434188459
aF0.587446721371947
aF0.03997864031849794
aa(lp796
F0.6403052047831377
aF0.32868571183318995
aF0.4907960438585742
aa(lp797
F0.6626137544287293
aF0.4887027194575011
aF0.48896062691747705
aa(lp798
F0.5866673216353218
aF0.6035632750813883
aF0.5125847417395198
aa(lp799
F0.6795396353717228
aF0.5414469786910995
aF0.5514933519810203
aa(lp800
F0.5323412042490954
aF0.4303736784906964
aF0.2811691260623517
aa(lp801
F0.4852941652784568
aF0.41356544307797777
aF0.27176124996622536
aa(lp802
F0.48766552990367107
aF0.47850378035395313
aF0.4171702972730904
aa(lp803
F0.494123054126683
aF0.653860149108104
aF0.38755311688985883
aa(lp804
F0.5514336383404997
aF0.7219477980383677
aF0.2378608339023317
aa(lp805
F0.5818324827145568
aF0.6106292397871025
aF0.16372818007099835
aa(lp806
F0.6325824831818598
aF0.7015858899501114
aF0.286237716318608
aa(lp807
F0.6230804707177138
aF0.7138752792229881
aF0.19271354597561655
aa(lp808
F0.6028616511848497
aF0.6152336800945222
aF0.2621322660146138
aa(lp809
F0.5837961775964617
aF0.6972553733687503
aF0.15928281631044092
aa(lp810
F0.5726158448963389
aF0.5597413274829446
aF0.224948742049094
aa(lp811
F0.552883828236783
aF0.5891332280884827
aF0.16297987571790823
aa(lp812
F0.5726931284487943
aF0.6208733171616501
aF0.011633032247428865
aa(lp813
F0.5960030741892599
aF0.5977262710966507
aF0.20827202339493597
aa(lp814
F0.5756499608747382
aF0.6080433343135585
aF0.02032684856869267
aa(lp815
F0.5866865832561491
aF0.5765921749045585
aF0.09454558446967996
aa(lp816
F0.5956187441814961
aF0.6627484976611456
aF0.12997004748559454
aa(lp817
F0.579305542990072
aF0.6948298645261572
aF0.18610054457843805
aa(lp818
F0.5751203548553608
aF0.6044050262706464
aF0.02734629181135455
aa(lp819
F0.5717401221543057
aF0.5497813776073303
aF0.16226403920839721
aa(lp820
F0.482746182695519
aF0.4549103761013048
aF0.2540117372856027
aa(lp821
F0.6002475783194495
aF0.4705685159701517
aF0.2115684161424489
aa(lp822
F0.6440255484673649
aF0.4588542194379497
aF0.39434248942878813
aa(lp823
F0.604277270231117
aF0.539371352591234
aF0.5230863273542579
aa(lp824
F0.6958780242323401
aF0.5452721386882932
aF0.6364724796428507
aa(lp825
F0.719194966621945
aF0.44742400840830804
aF0.7377812713667641
aa(lp826
F0.6761883885455673
aF0.5867497632290052
aF0.6191459854394594
aa(lp827
F0.7051856757397583
aF0.7469410627754904
aF0.5278288577934837
aa(lp828
F0.33821426424541695
aF0.09419532679339152
aF0.7408937480087319
aa(lp829
F0.45145099003222156
aF0.16674812313612913
aF0.6623632476042007
aa(lp830
F0.6094091077041672
aF0.1335258970548402
aF0.7801527034148527
aa(lp831
F0.6786771801104374
aF0.08126256952405383
aF0.7975510781875642
aa(lp832
F0.5990608098178969
aF0.23893469457623445
aF0.7478098958291635
aa(lp833
F0.7604860316170031
aF0.2650364077941887
aF0.7914321210671469
aa(lp834
F0.8256903661754902
aF0.28188109201920974
aF0.7909080763722225
aa(lp835
F0.7757330023039726
aF0.35735458420784116
aF0.6579503587014193
aa(lp836
F0.6479425952723404
aF0.3308484029290708
aF0.657509023495136
aa(lp837
F0.4951307741095737
aF0.41771029742084687
aF0.5726662999460433
aa(lp838
F0.4853661252816217
aF0.5443240539312342
aF0.5106142998728818
aa(lp839
F0.4425854728779849
aF0.7157099191772169
aF0.535040254441134
aa(lp840
F0.5557296363493023
aF0.8249511889813261
aF0.5772180439201341
aa(lp841
F0.6295893680336232
aF0.9362207138435599
aF0.6013855045492141
aa(lp842
F0.5698748177169657
aF0.6347741417757461
aF0.11951815863523195
aa(lp843
F0.5428266131693674
aF0.6589014958784654
aF0.261204672401185
aa(lp844
F0.6522639260017243
aF0.4638281498732677
aF0.3001690554618073
aa(lp845
F0.5976510737600608
aF0.4260649656209339
aF0.20242662262193872
aa(lp846
F0.5968757698301431
aF0.4553074862641481
aF0.22921221942275327
aa(lp847
F0.64244361585445
aF0.5368302098144637
aF0.35943527398285674
aa(lp848
F0.6543169333849654
aF0.56830946495823
aF0.2868736294828798
aa(lp849
F0.5636747149239962
aF0.7298838385133302
aF0.23120201512240107
aa(lp850
F0.5912158811466128
aF0.8120232497937582
aF0.3684714749329663
aa(lp851
F0.6593989411840859
aF0.7965372896187151
aF0.5207663723107728
aa(lp852
F0.7329357011803121
aF0.8360425927331848
aF0.5070980571839685
aa(lp853
F0.7179844710003913
aF0.9180417526146964
aF0.5560470578380605
aa(lp854
F0.5740190805030021
aF0.9796061084788668
aF0.5983894839971019
aa(lp855
F0.4418268885947151
aF1.0771785871787467
aF0.6947721406986891
aa(lp856
F0.4490261636301828
aF1.0479522067826958
aF0.7666407338287922
aa(lp857
F0.37998549319258557
aF1.0572504136414815
aF0.6588736260732533
aa(lp858
F0.43572837940924203
aF0.9862065497003631
aF0.5717091656477442
aa(lp859
F0.5244105425761565
aF1.0082174540108935
aF0.6980859014215207
aa(lp860
F0.5807943988617307
aF1.1188302858384584
aF0.7495995756162448
aa(lp861
F0.6398784534778812
aF1.055795987748547
aF0.6862816673253006
aa(lp862
F0.5294724697323955
aF0.9735875669068269
aF0.6126162594847573
aa(lp863
F0.43832628377360716
aF0.9246606108335857
aF0.5084013508899013
aa(lp864
F0.44956595720452436
aF0.858888219572046
aF0.43350719728462156
aa(lp865
F0.4907640641427335
aF0.8060821484641816
aF0.3150731721011892
aa(lp866
F0.6321130121027658
aF0.8738392861954509
aF0.5602900675606066
aa(lp867
F0.6820002622627771
aF0.9722877259434576
aF0.7163224568607331
aa(lp868
F0.7297402976642338
aF0.48016786757605323
aF0.5964683357655222
aa(lp869
F0.7217057532187245
aF0.3610934773273358
aF0.45265305172164666
aa(lp870
F0.7003701409318359
aF0.326742903712676
aF0.4083692873141798
aa(lp871
F0.5782948219468429
aF0.41615231359607385
aF0.3650600835863655
aa(lp872
F0.4891708671305343
aF0.49061518120223147
aF0.5051809543234962
aa(lp873
F0.5820700402316018
aF0.5769595880204785
aF0.3644410610487433
aa(lp874
F0.642027168302028
aF0.7507711792500213
aF0.34329741755496673
aa(lp875
F0.6932808211780364
aF0.8174846247392004
aF0.46263556613888357
aa(lp876
F0.6452731799030442
aF0.766431123961712
aF0.3171673744026875
aa(lp877
F0.5480225045530593
aF0.6758588444897224
aF0.21488673437622713
aa(lp878
F0.5578146993098944
aF0.6200784436296244
aF0.06076702629523911
aa(lp879
F0.5768526597241167
aF0.6020642634374083
aF0.005268257458493242
aa(lp880
F0.5933348061141781
aF0.6522909949202317
aF0.14425655210479382
aa(lp881
F0.5737688544390405
aF0.5936813989174082
aF0.007135111272004924
aa(lp882
F0.5558585915628597
aF0.6687631269169695
aF0.14975406380970596
aa(lp883
F0.5684930589229246
aF0.5940184342365975
aF0.08673989700895657
aa(lp884
F0.532922036473429
aF0.6855353373756095
aF0.17500909748650786
aa(lp885
F0.5335874231122839
aF0.7961453974131221
aF0.3044491393360675
aa(lp886
F0.5154701016529661
aF0.6187570254110896
aF0.3701637341177902
aa(lp887
F0.450590023366491
aF0.5829240693045323
aF0.5378608637506349
aa(lp888
F0.37020187636230695
aF0.63912401732883
aF0.6082611591183262
aa(lp889
F0.3935754089767505
aF0.6187101015715367
aF0.6490039148665723
aa(lp890
F0.3783056793594839
aF0.4855092394737562
aF0.7828318863460385
aa(lp891
F0.3533713965540293
aF0.485936417286231
aF0.7104287759554873
aa(lp892
F0.5234850011612275
aF0.40922618735599664
aF0.7104564278460532
aa(lp893
F0.479706920182111
aF0.5366194550624963
aF0.7848556482487026
aa(lp894
F0.45769915219316626
aF0.40097050861881706
aF0.754139509371055
aa(lp895
F0.3644989427958116
aF0.4260445291602244
aF0.5812389628741816
aa(lp896
F0.4722241488559987
aF0.5381451415924706
aF0.5256028186474766
aa(lp897
F0.6313422301467494
aF0.650262577539799
aF0.5715262952611097
aa(lp898
F0.5503916078372078
aF0.5158546499205909
aF0.5393636652725092
aa(lp899
F0.6652196793219878
aF0.3722371115401365
aF0.4892754399421259
aa(lp900
F0.619760609060961
aF0.3228893927959607
aF0.41077753833705827
aa(lp901
F0.528863595315303
aF0.39746718814241305
aF0.2567111384682795
aa(lp902
F0.5606283630537812
aF0.40243545690347904
aF0.21851021351154307
aa(lp903
F0.5862676045235787
aF0.485543467555862
aF0.11312814081523381
aa(lp904
F0.6324961574583544
aF0.5981468179936734
aF0.2077186255952655
aa(lp905
F0.4314441631834324
aF0.33799584586152565
aF0.5610338549839454
aa(lp906
F0.4877329165580354
aF0.38129738402746466
aF0.3871127369308692
aa(lp907
F0.5841346585742535
aF0.5107229956817849
aF0.2954463571577978
aa(lp908
F0.4843371391781139
aF0.66469900358644
aF0.2968005796000611
aa(lp909
F0.5656166371143245
aF0.7114295384847584
aF0.1477399794062686
aa(lp910
F0.5731836993441958
aF0.6102192202116271
aF0.010739117812849842
aa(lp911
F0.5727818247119602
aF0.6268753627837576
aF0.02093966433610275
aa(lp912
F0.5561826248508426
aF0.627422540676656
aF0.058167189673523106
aa(lp913
F0.5681046283149899
aF0.5770376110446125
aF0.1058465418480819
aa(lp914
F0.6408624727678482
aF0.4655294556456302
aF0.2315148834409068
aa(lp915
F0.6588663209733706
aF0.5481599181039192
aF0.35177276111179084
aa(lp916
F0.6622423994184592
aF0.5243297597611731
aF0.27958086995914727
aa(lp917
F0.5000241456440155
aF0.5116263886887825
aF0.20950693593130182
aa(lp918
F0.5561406363124131
aF0.564704543206166
aF0.09239584565773651
aa(lp919
F0.5845891674092086
aF0.6412645257128852
aF0.045691278050620815
aa(lp920
F0.5386984730562812
aF0.5724530994277921
aF0.1730732970117364
aa(lp921
F0.5584467321403171
aF0.49000631788783
aF0.28973131800109153
aa(lp922
F0.43983811094375613
aF0.5603758759723404
aF0.38993651476738533
aa(lp923
F0.5108487194341129
aF0.50312423470694
aF0.2273364126591324
aa(lp924
F0.6074757295720765
aF0.571269897311792
aF0.13434870352669287
aa(lp925
F0.5716632473581582
aF0.5837635736322931
aF0.11132977054610382
aa(lp926
F0.5459037746346501
aF0.47946120512785523
aF0.16583381981988882
aa(lp927
F0.5740450158348137
aF0.5853267185499492
aF0.028113319152536145
aa(lp928
F0.5639942796865332
aF0.5452290163963611
aF0.09977649274553056
aa(lp929
F0.5505844350359499
aF0.5904059005377611
aF0.07266003235764931
aa(lp930
F0.5254006678991272
aF0.9711929594943748
aF0.7397791546363045
aa(lp931
F0.42016965436712106
aF0.878422684673417
aF0.776768528494465
aa(lp932
F0.38791741847144345
aF0.8034232486488588
aF0.7905330165549361
aa(lp933
F0.32178785984587677
aF0.8743745568895349
aF0.7408405188393048
aa(lp934
F0.35300212594199143
aF0.7774745219036394
aF0.5999760411882065
aa(lp935
F0.5028339442899015
aF0.7266837365938539
aF0.5180159931346465
aa(lp936
F0.5033255246673644
aF0.33735673349025974
aF0.5068328121124633
aa(lp937
F0.4733917208385563
aF0.38166240339618746
aF0.34343197391290875
aa(lp938
F0.5020654913522105
aF0.34908845537106753
aF0.32293450026043546
aa(lp939
F0.5335585620490167
aF0.4050067984694336
aF0.24283694347137086
aa(lp940
F0.63328046590863
aF0.6658759417742761
aF0.7849599628060544
aa(lp941
F0.5809071435415283
aF0.7265808430168701
aF0.7728900821385056
aa(lp942
F0.6929186082228389
aF0.7540688322856532
aF0.7354295723726914
aa(lp943
F0.7207886055352317
aF0.852395342381016
aF0.6077316081373643
aa(lp944
F0.5960222382844377
aF0.9279476277278434
aF0.49008213714365517
aa(lp945
F0.5475788998650124
aF0.923809863534147
aF0.5525292406769609
aa(lp946
F0.5488175191683782
aF1.0453185386226473
aF0.6562766337901106
aa(lp947
F0.3850085954415532
aF0.9695713627143137
aF0.5431769376451716
aa(lp948
F0.37960477138249704
aF0.817099121667878
aF0.6112029310375117
aa(lp949
F0.42276464128835867
aF0.6764411909097783
aF0.6260180136107985
aa(lp950
F0.3897184035751717
aF0.5279429702670773
aF0.5715129782038123
aa(lp951
F0.5081889064988275
aF0.4380032393616616
aF0.5576113669512295
aa(lp952
F0.6101845604194979
aF0.4678807612998939
aF0.5153296914919842
aa(lp953
F0.6361508839384531
aF0.5863976826121211
aF0.4593483983284632
aa(lp954
F0.6795688978957962
aF0.5611777211771471
aF0.3422184521117504
aa(lp955
F0.6079357517943366
aF0.6516528532054849
aF0.23102837937418708
aa(lp956
F0.702820848846154
aF0.30349199928643084
aF0.4297986746014149
aa(lp957
F0.6279814813646716
aF0.2925310743775743
aF0.5299616356959168
aa(lp958
F0.47295024637052846
aF0.34262415412853725
aF0.5536274367305817
aa(lp959
F0.4488974095229113
aF0.2830511330606912
aF0.6428860194126007
aa(lp960
F0.43067496249141596
aF0.14483357174036846
aF0.6195501888062313
aa(lp961
F0.45709691262936264
aF0.887507556457957
aF0.49795373308135604
aa(lp962
F0.6081464226104776
aF0.8579445104208625
aF0.5148153056885902
aa(lp963
F0.587099071725209
aF0.8331310226625177
aF0.6706261175035833
aa(lp964
F0.6705557336834126
aF0.7566030817682396
aF0.7796959402000222
aa(lp965
F0.5935897970118347
aF0.6047939539639012
aF0.5837414617319747
aa(lp966
F0.5251953749608398
aF0.5039352420247996
aF0.7004192680718627
aa(lp967
F0.6879458141770094
aF0.485356391253689
aF0.7676446988664436
aa(lp968
F0.7279466819727872
aF0.276105792011216
aF0.7930931402463437
aa(lp969
F0.8168111557739668
aF0.20522079093560394
aF0.7922837349874072
aa(lp970
F0.5836709779440289
aF0.21011257827812116
aF0.6038407577643928
aa(lp971
F0.5695128034309614
aF0.2609683657287261
aF0.5878437558483816
aa(lp972
F0.6404379660005196
aF0.32801605257611505
aF0.3600630745425685
aa(lp973
F0.6279092005768111
aF0.4388263635945454
aF0.2625934857392679
aa(lp974
F0.5938933638741882
aF0.8206917870963086
aF0.3170485326840946
aa(lp975
F0.5485477969719043
aF0.7913623209529889
aF0.2819081263574316
aa(lp976
F0.6003199256677609
aF0.7350201029075281
aF0.23485640833097385
aa(lp977
F0.37918225988137105
aF0.9097643131228709
aF0.6050055605090245
aa(lp978
F0.4634619518038366
aF0.7658461894352082
aF0.3300437733056649
aa(lp979
F0.5782094470104432
aF0.7298567501536669
aF0.2049748900133521
aa(lp980
F0.6004270619720848
aF0.632612685573186
aF0.09106796182555357
aa(lp981
F0.5989380933062006
aF0.5666141133155165
aF0.08145126509421763
aa(lp982
F0.5725515602885636
aF0.5534004225310812
aF0.014521854564757408
aa(lp983
F0.5663812273018233
aF0.5589224559296012
aF0.08763233750768187
aa(lp984
F0.5094578778201926
aF0.48388280516848836
aF0.19776980009922154
aa(lp985
F0.5362263581732826
aF0.6251133199556819
aF0.2571196555331074
aa(lp986
F0.5444164737538417
aF0.5653870146830672
aF0.12208018784134467
aa(lp987
F0.631482750789274
aF0.5319055742704539
aF0.18321934400404194
aa(lp988
F0.5707026751454494
aF0.6394632679176682
aF0.11660852509709514
aa(lp989
F0.6428353620541798
aF0.6236587137288145
aF0.21331541758466097
aa(lp990
F0.5512654378357096
aF0.5127217997189896
aF0.11647349213351293
aa(lp991
F0.5711243957725992
aF0.5706770486479542
aF0.03518571429828841
aa(lp992
F0.5657231310439843
aF0.6390815239497665
aF0.127257633476062
aa(lp993
F0.5969844049377848
aF0.6326072697133365
aF0.2919594898597575
aa(lp994
F0.6154474635955285
aF0.5724426859831899
aF0.15829519046408702
aa(lp995
F0.627647722567795
aF0.6868936102218528
aF0.2224731755814891
aa(lp996
F0.5946710688793599
aF0.6682299474177007
aF0.3851477660956903
aa(lp997
F0.680058677948594
aF0.5816828437631327
aF0.4487042536720103
aa(lp998
F0.5072028075813441
aF0.5025103327833648
aF0.4378079478496306
aa(lp999
F0.603759095889812
aF0.5740171043884609
aF0.22108448894599972
aa(lp1000
F0.8072001650401395
aF1.0672279520878643
aF0.7413670568523482
aa.