(lp0
(lp1
F0.575
aF0.575
aF0.3
aa(lp2
F0.5229165667525407
aF0.43089899171430623
aF0.1969388124136282
aa(lp3
F0.5179822396810597
aF0.5669377918327198
aF0.1807509969740683
aa(lp4
F0.5595921697795962
aF0.5881921154151795
aF0.0022606455188841855
aa(lp5
F0.553170479905774
aF0.6317961325508695
aF0.048084920469119476
aa(lp6
F0.5058255230017076
aF0.9561849976377768
aF0.6623901221653865
aa(lp7
F0.38410609165891046
aF1.0465036711308573
aF0.7554144643848494
aa(lp8
F0.4507534662866296
aF0.9755777940063504
aF0.7249978650670124
aa(lp9
F0.5645219776630039
aF0.8867777160724667
aF0.6105715756563636
aa(lp10
F0.6751481028424541
aF0.8730973438678584
aF0.5334776489501163
aa(lp11
F0.640691758069158
aF0.8882225587101389
aF0.5660558627205661
aa(lp12
F0.6236329878989209
aF0.7453580608690031
aF0.439000355135851
aa(lp13
F0.45462724795695264
aF0.7864527796304317
aF0.35679670875190217
aa(lp14
F0.5121066202685683
aF0.7237212206147807
aF0.33267334694278494
aa(lp15
F0.5579774736156926
aF0.616494584839697
aF0.40438148870919205
aa(lp16
F0.4988678093705148
aF0.6261626075013429
aF0.5926758373557486
aa(lp17
F0.4607033511405303
aF0.7255926621763498
aF0.5551135394253263
aa(lp18
F0.4027382269791325
aF0.6948457328575244
aF0.5614476363986259
aa(lp19
F0.3470965943816492
aF0.5365370919475662
aF0.6168275129568704
aa(lp20
F0.465701257499967
aF0.5090088319437148
aF0.5128819178326249
aa(lp21
F0.6356094907359005
aF0.5936272212329003
aF0.4599091912938783
aa(lp22
F0.39866301015146904
aF0.2565084299984197
aF0.7735327821887816
aa(lp23
F0.515564703897174
aF0.4980186265759309
aF0.2415850305500693
aa(lp24
F0.6376344299084487
aF0.6080186742771272
aF0.24636853260052796
aa(lp25
F0.573167297169947
aF0.6077288359363413
aF0.059508934776400936
aa(lp26
F0.5523064351594436
aF0.5438558042178688
aF0.021782406248065822
aa(lp27
F0.5561653969595073
aF0.5463706975831945
aF0.02330964480826303
aa(lp28
F0.5573837895538479
aF0.6211799265480578
aF0.0749142612376728
aa(lp29
F0.5672388860327771
aF0.5709153402546407
aF0.25956787296014955
aa(lp30
F0.5497807612563715
aF0.5470834119651669
aF0.19121160871828968
aa(lp31
F0.5305781335488728
aF0.5202893632658834
aF0.11462440534158072
aa(lp32
F0.5435150114662766
aF0.5887915591501225
aF0.14437181574321276
aa(lp33
F0.5596629996871682
aF0.5841372425860689
aF0.321143890068788
aa(lp34
F0.5829636577969688
aF0.6340257580789279
aF0.32549506453658617
aa(lp35
F0.6602037140902075
aF0.8788585580743955
aF0.5079476099363597
aa(lp36
F0.6765635643339543
aF0.8495427057043711
aF0.6085118619082884
aa(lp37
F0.5956385527109936
aF0.7469026741541249
aF0.731798221115664
aa(lp38
F0.545844939941937
aF0.7436545750234909
aF0.7636037351871546
aa(lp39
F0.6991895288299419
aF0.6544354190029247
aF0.6906778855691118
aa(lp40
F0.5475958645537462
aF0.7176106366007533
aF0.24522139548643304
aa(lp41
F0.6189484195437936
aF0.6821021983936493
aF0.19665544681211805
aa(lp42
F0.6472564166838486
aF0.5514818895212877
aF0.3360125150936643
aa(lp43
F0.5479016253894179
aF0.5204578195843858
aF0.22661990487525632
aa(lp44
F0.5452597200046098
aF0.5184488142877549
aF0.08430223953602925
aa(lp45
F0.5657803097591647
aF0.5969391609746446
aF0.08046468645784062
aa(lp46
F0.5215478671050869
aF0.5309407155764745
aF0.10710768946505961
aa(lp47
F0.5515265793376389
aF0.6502940416769626
aF0.0749799141110536
aa(lp48
F0.5183648262049748
aF0.4436519373730064
aF0.3336279103153672
aa(lp49
F0.6096164904241881
aF0.35016631635424994
aF0.35859608446271224
aa(lp50
F0.6455964508372323
aF0.23284606940243843
aF0.4796336627700966
aa(lp51
F0.6006159396615443
aF0.2983554001020508
aF0.4710843798194305
aa(lp52
F0.4936848481035223
aF0.45262077482161256
aF0.31724231339495357
aa(lp53
F0.4894391357477467
aF0.5155068663132047
aF0.30830235358085123
aa(lp54
F0.49826189527256304
aF0.5021609828157221
aF0.2555023280947579
aa(lp55
F0.6309068617497536
aF0.5980171877809698
aF0.2385833124466565
aa(lp56
F0.46408784431608335
aF0.5242391026109053
aF0.37515376438617154
aa(lp57
F0.539232978857457
aF0.5890485834806878
aF0.38934376628056777
aa(lp58
F0.5945822338663418
aF0.6108468703636816
aF0.34199961112529675
aa(lp59
F0.5365896309315582
aF0.7450632004011872
aF0.2566183512096791
aa(lp60
F0.4764320926465262
aF0.5803259422128835
aF0.25552008827409456
aa(lp61
F0.5582824358310337
aF0.5798834813323974
aF0.13812095579650388
aa(lp62
F0.5468511827726134
aF0.5198407063730012
aF0.030818727818069026
aa(lp63
F0.5424205619450323
aF0.6154105013179191
aF0.0938327231027067
aa(lp64
F0.5730956861684107
aF0.5950838315026306
aF0.05565355675977823
aa(lp65
F0.5608393111876867
aF0.5211020621417947
aF0.031678348580452646
aa(lp66
F0.5274848832290058
aF0.4799658338149025
aF0.08781003150487754
aa(lp67
F0.5626783048664616
aF0.6735226193351495
aF0.19066113563947448
aa(lp68
F0.5608785700379983
aF0.5112614489869665
aF0.07586534979795073
aa(lp69
F0.6284261801411737
aF0.5631498472112259
aF0.23938242624631895
aa(lp70
F0.49611132167281446
aF0.4857980719534715
aF0.36609587552862266
aa(lp71
F0.5077115484196805
aF0.38143941893771843
aF0.2974075615823593
aa(lp72
F0.520868326905455
aF0.4305576674439683
aF0.18325229244640948
aa(lp73
F0.5613465200308918
aF0.3787521539369723
aF0.32754318885204753
aa(lp74
F0.5633604669588128
aF0.5081795684914064
aF0.25366485334412214
aa(lp75
F0.5439008816520243
aF0.5747176635097822
aF0.3039274038343816
aa(lp76
F0.5590533004621094
aF0.6878759285517597
aF0.35984599022855285
aa(lp77
F0.6783599261831117
aF0.6720338617042005
aF0.422912086336856
aa(lp78
F0.6407765711898026
aF0.7943799105135848
aF0.4375254937537767
aa(lp79
F0.5561648405490659
aF0.8702173531464903
aF0.4253143666514621
aa(lp80
F0.5239762893723695
aF0.691036830312397
aF0.4282149663520972
aa(lp81
F0.6546698388359735
aF0.553007388493649
aF0.4403476974813707
aa(lp82
F0.7421455644010997
aF0.5553969101752805
aF0.584058349342047
aa(lp83
F0.7392329527972337
aF0.4054340079933294
aF0.5781693929785917
aa(lp84
F0.6563630970566795
aF0.3825340261977295
aF0.7272724817679818
aa(lp85
F0.5253741153809974
aF0.4494130747199041
aF0.6967048844465313
aa(lp86
F0.48815160583601536
aF0.2885001715213349
aF0.6194753541389078
aa(lp87
F0.49914979096997336
aF0.7198672487237338
aF0.3312830922564624
aa(lp88
F0.5876907030828008
aF0.6820002671233827
aF0.19205819992414375
aa(lp89
F0.5604265412558882
aF0.6270327275721113
aF0.034356808933327536
aa(lp90
F0.5645691309066517
aF0.5633091373861273
aF0.02185341810523385
aa(lp91
F0.5604227292571605
aF0.4915647040095268
aF0.06645376748403145
aa(lp92
F0.5753552960184638
aF0.47059144424205396
aF0.20146743433705386
aa(lp93
F0.535525348091396
aF0.8133403794970787
aF0.6466225666907056
aa(lp94
F0.6955674097288964
aF0.8906611197855363
aF0.7220279079156152
aa(lp95
F0.7150729078909694
aF1.0290683292853084
aF0.7031885738537558
aa(lp96
F0.6672814363070645
aF0.8748213607709214
aF0.7244101058683005
aa(lp97
F0.7177754578049882
aF0.7054706983564116
aF0.6538170690146284
aa(lp98
F0.6272955636769663
aF0.686045181142316
aF0.5083755354122309
aa(lp99
F0.6252644163337712
aF0.7989765590192373
aF0.49796555166777784
aa(lp100
F0.6463020579980958
aF0.6167662013451645
aF0.5721125930238241
aa(lp101
F0.6760703310884781
aF0.4467670114786578
aF0.6381915013689103
aa(lp102
F0.6680487371418881
aF0.4835113229790166
aF0.7273513868655992
aa(lp103
F0.5478608625785382
aF0.4476841620245969
aF0.7087750940951019
aa(lp104
F0.6202310596310074
aF0.27198488423808953
aF0.7366512710307149
aa(lp105
F0.37972117552745954
aF0.31826848815720227
aF0.5699788391561008
aa(lp106
F0.41533703618435114
aF0.16540832321287965
aF0.6231932900946066
aa(lp107
F0.546229932274271
aF0.07650574693489562
aF0.7264253313305535
aa(lp108
F0.6271330106082688
aF0.12595933845270563
aF0.7482854945843389
aa(lp109
F0.5118959179055175
aF0.10564605097002529
aF0.7933326340520056
aa(lp110
F0.5506810711207644
aF0.5490794185466533
aF0.1204606623822449
aa(lp111
F0.5861938468969926
aF0.7075078000351037
aF0.21621538683898073
aa(lp112
F0.6222492736772096
aF0.7499551446009787
aF0.2600301288487101
aa(lp113
F0.5473117794981757
aF0.7138303243669902
aF0.25745102478544085
aa(lp114
F0.5616670876577192
aF0.6327030009976407
aF0.09143153336198262
aa(lp115
F0.6239369594914129
aF0.6948761719332281
aF0.254745447103089
aa(lp116
F0.5041364978110191
aF0.6752294776511355
aF0.23587994178852184
aa(lp117
F0.568762507089632
aF0.5523728847212193
aF0.24455263032879027
aa(lp118
F0.5636570527709027
aF0.6885981467995219
aF0.33618067793479495
aa(lp119
F0.5605231291639475
aF0.6124091053050692
aF0.26904363971869877
aa(lp120
F0.5765075043572124
aF0.5449651785950271
aF0.11289653303502672
aa(lp121
F0.5461468238684318
aF0.5249798637782148
aF0.04565227872364606
aa(lp122
F0.5575596090836121
aF0.7009862962092441
aF0.3150186243528428
aa(lp123
F0.5246627540324247
aF0.6744109174998817
aF0.143396853606541
aa(lp124
F0.4494983478472986
aF0.5779428202353369
aF0.31726276166505124
aa(lp125
F0.4313003791415812
aF0.48754389819634353
aF0.4879593693159898
aa(lp126
F0.484742363424456
aF0.3478408992692749
aF0.5970334693338722
aa(lp127
F0.4238450588648257
aF0.27927406226759777
aF0.6188679746187572
aa(lp128
F0.4002126685639767
aF0.21940672059372485
aF0.6446077046609443
aa(lp129
F0.46385461358555735
aF0.3241129722233602
aF0.6409288399718642
aa(lp130
F0.5286414150080638
aF0.23466081285759405
aF0.7676880928624789
aa(lp131
F0.48198387800291564
aF0.33063059059197336
aF0.6247799470958065
aa(lp132
F0.4234310043143723
aF0.30250961810393334
aF0.5428881754538291
aa(lp133
F0.41824027017302046
aF0.2091214269915534
aF0.6045637894923046
aa(lp134
F0.4452858843746281
aF0.10277932817288749
aF0.7578282418715299
aa(lp135
F0.4718220219207582
aF0.28364514773431276
aF0.7872724556494802
aa(lp136
F0.5166624203418304
aF0.16407342061633373
aF0.7247263641389016
aa(lp137
F0.529863460446723
aF0.35639574129531426
aF0.7632152307316802
aa(lp138
F0.4944372323008978
aF0.6337073120363008
aF0.3926440119803877
aa(lp139
F0.4078748720561594
aF0.6932346665987718
aF0.5099451284589289
aa(lp140
F0.5102060505651631
aF0.8262329472526304
aF0.6149890207287179
aa(lp141
F0.48999209154605494
aF0.9542243389190908
aF0.7657935602890814
aa(lp142
F0.31977862160238646
aF0.8795082233452576
aF0.7717529550051124
aa(lp143
F0.30113322993762015
aF0.7066347569548188
aF0.7354454630030073
aa(lp144
F0.42487307171430333
aF0.6488588295261897
aF0.6454412329657393
aa(lp145
F0.37842318553363
aF0.6492901928370044
aF0.6569786692314978
aa(lp146
F0.5544467017584268
aF0.6051457091547932
aF0.6813617461297862
aa(lp147
F0.5113598847239662
aF0.49533299342551146
aF0.748083916003806
aa(lp148
F0.6311834997575223
aF0.4701434208023175
aF0.7148365573910942
aa(lp149
F0.7850141042404757
aF0.39212389610308945
aF0.712188609912271
aa(lp150
F0.6893869492189995
aF0.3842318758092349
aF0.7048818218164543
aa(lp151
F0.6689999123384334
aF0.28848748312782047
aF0.6739062669962157
aa(lp152
F0.721922214980736
aF0.23200516378844122
aF0.5010771760063367
aa(lp153
F0.6721460030680085
aF0.3769165940589271
aF0.468239495061719
aa(lp154
F0.6225710075395022
aF0.3614410828641207
aF0.2909853872853007
aa(lp155
F0.5670549502036534
aF0.5214599560841093
aF0.20333932607501942
aa(lp156
F0.5676297082920864
aF0.5282509366172491
aF0.029163333862530918
aa(lp157
F0.5490839427664943
aF0.43815398039024883
aF0.15846864700721178
aa(lp158
F0.5634078770135009
aF0.43871442891816104
aF0.26100290925065134
aa(lp159
F0.5642167288989208
aF0.7663311849229484
aF0.27659205280202065
aa(lp160
F0.6767033474264621
aF0.7100301786906542
aF0.3642758378251066
aa(lp161
F0.6559427117799187
aF0.5658349989929963
aF0.48701961058423526
aa(lp162
F0.6012666215533028
aF0.6436236556836262
aF0.4304435337127275
aa(lp163
F0.43825339055315765
aF0.609718586439586
aF0.35522489386562417
aa(lp164
F0.5796844638784233
aF0.5357302927377158
aF0.3944582188639807
aa(lp165
F0.5224148012815305
aF0.38551455798907147
aF0.3119905231887356
aa(lp166
F0.611096356975205
aF0.40050949771702266
aF0.338986823467178
aa(lp167
F0.6860598169180671
aF0.26768668861459244
aF0.4203019456969102
aa(lp168
F0.5814864860152893
aF0.38713861571122443
aF0.3276102650000214
aa(lp169
F0.5452697992822205
aF0.5317706913940391
aF0.21265267023912965
aa(lp170
F0.5168785731654185
aF0.6930684434198502
aF0.23595731665963263
aa(lp171
F0.5128646590759409
aF0.5826639775554165
aF0.1651492341432654
aa(lp172
F0.5619831011743938
aF0.5276716763518632
aF0.06061075293572946
aa(lp173
F0.5589062712887966
aF0.617721984860689
aF0.03463185747062747
aa(lp174
F0.5892234154658849
aF0.67971555729885
aF0.12607961177112764
aa(lp175
F0.5546230062335724
aF0.6129087655440267
aF0.302286976414697
aa(lp176
F0.4921382661982915
aF0.5261026561780469
aF0.22125560871722616
aa(lp177
F0.5506218545796967
aF0.4049748558257047
aF0.25447534570762226
aa(lp178
F0.5264493026661992
aF0.5519891016505133
aF0.3480493445879087
aa(lp179
F0.5096535177676706
aF0.48312273276971734
aF0.48861184974016125
aa(lp180
F0.5315466986332665
aF0.6284327632495372
aF0.6147445499720066
aa(lp181
F0.5677478223669288
aF0.5720265854511852
aF0.782175028919537
aa(lp182
F0.7080900610449157
aF0.6218762653678948
aF0.7211007771929812
aa(lp183
F0.7630919179774529
aF0.5502673405904893
aF0.6234485256545239
aa(lp184
F0.7005423343665822
aF0.6049837844496169
aF0.4794275136076116
aa(lp185
F0.6292754793332803
aF0.7639124096872734
aF0.412912854242331
aa(lp186
F0.6939848407061686
aF0.7410401223112361
aF0.5070401794171143
aa(lp187
F0.6396936289741719
aF0.7264692222117188
aF0.3941083118751354
aa(lp188
F0.4595797276023119
aF0.7072502831421777
aF0.32115773495587707
aa(lp189
F0.4102461114481862
aF0.8286192435266977
aF0.4640449519776277
aa(lp190
F0.39560447980784
aF0.7921495635717091
aF0.5816601258423281
aa(lp191
F0.46373067014364067
aF0.6100129562834989
aF0.6024133419744082
aa(lp192
F0.4456077006547192
aF0.4785962389958907
aF0.5692869775224428
aa(lp193
F0.4665686401133242
aF0.5729725981346455
aF0.6675480777538123
aa(lp194
F0.5072980290242212
aF0.39571575257443037
aF0.595024843075794
aa(lp195
F0.5705059256663727
aF0.47769240570386245
aF0.6089034520472594
aa(lp196
F0.605291941202794
aF0.5120545964262095
aF0.5161127894700605
aa(lp197
F0.5288424446572751
aF0.5912822341891508
aF0.397897447325913
aa(lp198
F0.4910331565593505
aF0.5728873091542183
aF0.539975051452834
aa(lp199
F0.39141092617720974
aF0.4291635441444855
aF0.6002593078511762
aa(lp200
F0.4041119962478355
aF0.47997719888789087
aF0.5811989632043226
aa(lp201
F0.5511876172639218
aF0.5494016239538546
aF0.4706427108651001
aa(lp202
F0.5757699372264797
aF0.5528982209584048
aF0.30074415318761044
aa(lp203
F0.4893804979655196
aF0.5392672695028062
aF0.21792132867569533
aa(lp204
F0.5081485804183342
aF0.4922601642128961
aF0.2011428661416006
aa(lp205
F0.5863090592165885
aF0.422858369853344
aF0.21051417647318021
aa(lp206
F0.5359980698360246
aF0.375723915785972
aF0.2749951855842107
aa(lp207
F0.4780090249186731
aF0.4434012914592977
aF0.2541306174663143
aa(lp208
F0.5659026155979744
aF0.3831884241232718
aF0.2927118948105422
aa(lp209
F0.5866622508766939
aF0.4549855283651831
aF0.16498065900492564
aa(lp210
F0.5551679695120176
aF0.5936415676908738
aF0.12112924476838637
aa(lp211
F0.5824390577713611
aF0.3047798197954036
aF0.463388436648542
aa(lp212
F0.5231962381826231
aF0.5157972114372658
aF0.22616449342922795
aa(lp213
F0.5423166444235148
aF0.5139064370563168
aF0.0940274495307242
aa(lp214
F0.5589466716321916
aF0.5521039590714895
aF0.006860272086705078
aa(lp215
F0.5640429750676091
aF0.6424518293253322
aF0.05683278759408781
aa(lp216
F0.5596729230645763
aF0.5814239135187362
aF0.0012620883480632728
aa(lp217
F0.5515566717584872
aF0.5592330140920662
aF0.05026724875338298
aa(lp218
F0.5698886011023647
aF0.43047523065055443
aF0.1675199590521162
aa(lp219
F0.5781274764962632
aF0.45414357970765484
aF0.28821817794226295
aa(lp220
F0.5464550103477318
aF0.6385928419523214
aF0.266979013416277
aa(lp221
F0.4753755199501701
aF0.7180677194207916
aF0.2312677659861435
aa(lp222
F0.6076862347537078
aF0.6647368149044199
aF0.17927629613397916
aa(lp223
F0.5046278821545562
aF0.6863594827048543
aF0.3042667846822924
aa(lp224
F0.469955359237672
aF0.7904069976347805
aF0.39422613676934476
aa(lp225
F0.49255656337025516
aF0.8267649593291722
aF0.5100526595231711
aa(lp226
F0.5402765169025594
aF0.9595976865817697
aF0.622674811054685
aa(lp227
F0.49118827711610014
aF1.021361223686192
aF0.6650755121662654
aa(lp228
F0.3482880239773202
aF1.029106116191082
aF0.7149545632850011
aa(lp229
F0.30437235588817846
aF0.8388717798435179
aF0.7316204306171149
aa(lp230
F0.32205507295266045
aF0.6544085700586952
aF0.6906337320981483
aa(lp231
F0.4435707800275508
aF0.6620038144401985
aF0.6650051659020204
aa(lp232
F0.5591277022320367
aF0.7749247266507362
aF0.7680025919039164
aa(lp233
F0.6555428089002737
aF0.8451128417894344
aF0.731051621968403
aa(lp234
F0.7426761335133175
aF0.684039988424379
aF0.7904138375289902
aa(lp235
F0.689530151351972
aF0.5305845898875052
aF0.6870200180696838
aa(lp236
F0.7554733679443757
aF0.13802457419812297
aF0.6567911775368017
aa(lp237
F0.5862070780864334
aF0.510283638060483
aF0.15269752455561508
aa(lp238
F0.5413302916449833
aF0.6127902006829546
aF0.0772576552132974
aa(lp239
F0.5383733340402759
aF0.5153637201535503
aF0.0584037723600388
aa(lp240
F0.5138670460973374
aF0.3601993896632524
aF0.40271443278483
aa(lp241
F0.541356526292516
aF0.30145304383996496
aF0.4764521887128303
aa(lp242
F0.4915881217823855
aF0.2962592965871797
aF0.3790678340902003
aa(lp243
F0.5725832403615309
aF0.36089297003890597
aF0.41272988002528854
aa(lp244
F0.5973765231168553
aF0.49245551240526314
aF0.4535000884320919
aa(lp245
F0.6490676576582715
aF0.41126404057538013
aF0.5978042523715982
aa(lp246
F0.6757943259336658
aF0.24691712124236925
aF0.5522317322268017
aa(lp247
F0.5233638375145918
aF0.2623534400774865
aF0.6724341928626196
aa(lp248
F0.6335750691598435
aF0.18606881863968655
aF0.7300912118256754
aa(lp249
F0.7386582616132933
aF0.26367915700282707
aF0.6997437874942818
aa(lp250
F0.7533640317364652
aF0.08214268655184674
aF0.7527029273907809
aa(lp251
F0.7796232366632789
aF0.19154367669540145
aF0.7335587356795673
aa(lp252
F0.6698333401932743
aF0.23763806539961263
aF0.6199079936243667
aa(lp253
F0.5496116104284745
aF0.30540438202026793
aF0.6170064719104812
aa(lp254
F0.4564804910251365
aF0.3163690532470065
aF0.5135000399043449
aa(lp255
F0.5334622235136343
aF0.3829656704540697
aF0.5853404997187631
aa(lp256
F0.6643928595428567
aF0.6919853066628977
aF0.32658652394419313
aa(lp257
F0.5695028317929425
aF0.6378182614769757
aF0.07446187061726138
aa(lp258
F0.41631291862785663
aF0.7356147419254313
aF0.40422181445612637
aa(lp259
F0.5623066210381659
aF0.8233940658731564
aF0.4097976389936432
aa(lp260
F0.6549370814765347
aF0.6839095641295982
aF0.4457322938907353
aa(lp261
F0.5728734414405146
aF0.6340897580562256
aF0.5237388079596671
aa(lp262
F0.6861992936008832
aF0.5022296209321104
aF0.6225535570398235
aa(lp263
F0.5473843594147727
aF0.5218454106943738
aF0.6540138210428323
aa(lp264
F0.485813983293278
aF0.6398783118626616
aF0.6165258353508731
aa(lp265
F0.49657348859968536
aF0.601248025877293
aF0.5638445034996511
aa(lp266
F0.4137296877135768
aF0.5349834819618744
aF0.39616687921432964
aa(lp267
F0.4802861604572211
aF0.6424756688982172
aF0.25083694958791275
aa(lp268
F0.46087364291178173
aF0.7218403045834083
aF0.2808112196434167
aa(lp269
F0.4745351097801564
aF0.6808526953259262
aF0.2625852011418055
aa(lp270
F0.5876325284459669
aF0.6030331658560946
aF0.09648650655984987
aa(lp271
F0.5379867948562354
aF0.5022132928199087
aF0.0809962564523315
aa(lp272
F0.5507351762043988
aF0.6022817552979843
aF0.05116525573121891
aa(lp273
F0.5364841643439106
aF0.6813609285191498
aF0.16498832664262064
aa(lp274
F0.6395793492348114
aF0.6689337795590387
aF0.2617416649527892
aa(lp275
F0.6288072283250193
aF0.5109451379625213
aF0.21832621597412638
aa(lp276
F0.62969499752368
aF0.44294689581286695
aF0.29522410121938053
aa(lp277
F0.570581444588962
aF0.598350554920676
aF0.042724397525707315
aa(lp278
F0.5112198971695486
aF0.4757829147362835
aF0.15445735918425074
aa(lp279
F0.48159837371570813
aF0.30180091604565995
aF0.6320947984478198
aa(lp280
F0.504889145546336
aF0.2764381526859424
aF0.7252156604342122
aa(lp281
F0.3666174587688615
aF0.17365001211502987
aF0.7158440923696201
aa(lp282
F0.3102006814967049
aF0.21172231399268787
aF0.6997739276189971
aa(lp283
F0.44243035087152477
aF0.20544970960916703
aF0.6111500060509619
aa(lp284
F0.5052126380331887
aF0.2075248137098415
aF0.7528290997338877
aa(lp285
F0.5426085657186315
aF0.3305168388216536
aF0.6109207869508697
aa(lp286
F0.666888160184206
aF0.36715424628473947
aF0.5788616254573418
aa(lp287
F0.6326823672101182
aF0.424358132270473
aF0.4062167960096125
aa(lp288
F0.5172779989689825
aF1.0348895784852663
aF0.6959440775408643
aa(lp289
F0.5574165507798605
aF0.8817175304106549
aF0.7928944311615322
aa(lp290
F0.5466486805820543
aF0.726805131164324
aF0.7868861464965521
aa(lp291
F0.4862601344338981
aF0.8376604168450418
aF0.650814285021977
aa(lp292
F0.6464350894623785
aF0.8839042746604242
aF0.5452583801410369
aa(lp293
F0.7429906373842965
aF0.9893101179734731
aF0.6173681561893803
aa(lp294
F0.775955773750808
aF0.951305311602913
aF0.7488822841846938
aa(lp295
F0.7578877028807229
aF0.9190756989135649
aF0.6164194196610264
aa(lp296
F0.6564514624046447
aF0.920096277095748
aF0.5018929520711373
aa(lp297
F0.6068382622587014
aF0.8680208856724694
aF0.5319058466071368
aa(lp298
F0.5621591056590887
aF0.9124139541617157
aF0.6000848840347602
aa(lp299
F0.38281000583371005
aF0.9111332813566505
aF0.5421964264068646
aa(lp300
F0.5100575378666178
aF0.8892115732060446
aF0.538062231325176
aa(lp301
F0.4491540733473121
aF0.7748326038134417
aF0.4621276164280291
aa(lp302
F0.3779772336068183
aF0.6686805592185712
aF0.6076906023748927
aa(lp303
F0.3468355914088709
aF0.577803830714154
aF0.5803125757157177
aa(lp304
F0.3763767652429821
aF0.6200180685994889
aF0.7705530343744555
aa(lp305
F0.4246064963272197
aF0.639998203548009
aF0.7153252623339266
aa(lp306
F0.579203223741332
aF0.5544865892722699
aF0.6760327548610539
aa(lp307
F0.695461485120709
aF0.5822167595344232
aF0.5436160582502005
aa(lp308
F0.716411079375053
aF0.5041550682748515
aF0.5237819828865086
aa(lp309
F0.6195077658787499
aF0.5400539221336541
aF0.408714558304762
aa(lp310
F0.5893916236788025
aF0.5196384106167924
aF0.2653747530654295
aa(lp311
F0.5702794467377759
aF0.5412221696627579
aF0.186685636259569
aa(lp312
F0.6130559322711537
aF0.7056241555970745
aF0.25806160528364136
aa(lp313
F0.586313470851275
aF0.7452628198957063
aF0.2541871492774937
aa(lp314
F0.6303492108252251
aF0.7952011950167106
aF0.31262984020768037
aa(lp315
F0.5320275326942385
aF0.7763832397479828
aF0.326492474242348
aa(lp316
F0.49561825421062344
aF0.702591688579126
aF0.2973056421159333
aa(lp317
F0.5624538655903988
aF0.6040957679348972
aF0.15354929316621124
aa(lp318
F0.5865391497406719
aF0.6676792117231085
aF0.11653573954780275
aa(lp319
F0.5593896619469216
aF0.5118535631547306
aF0.04187696522018056
aa(lp320
F0.5494344866683873
aF0.6616109797274019
aF0.09838140167831036
aa(lp321
F0.5437522755698715
aF0.5505729309961577
aF0.05829002893839794
aa(lp322
F0.5403611984751135
aF0.606820586551114
aF0.15548079210103652
aa(lp323
F0.5332421504636012
aF0.5959263361332037
aF0.08596851215668196
aa(lp324
F0.5555254370578552
aF0.5767313867878259
aF0.035141929146039357
aa(lp325
F0.46592990165773224
aF0.6047977206127392
aF0.5327249966887136
aa(lp326
F0.7450797371011514
aF0.7390150955114332
aF0.7515885619580549
aa(lp327
F0.7923740774036293
aF0.60178930264344
aF0.7693092869914447
aa(lp328
F0.7000633943778823
aF0.4593651235640305
aF0.7073519764551164
aa(lp329
F0.5697266283330744
aF0.4969595917969616
aF0.7159260032688853
aa(lp330
F0.64691233030957
aF0.4463074540373748
aF0.5547635708441911
aa(lp331
F0.5775749682668141
aF0.5067063818127882
aF0.5759714581080764
aa(lp332
F0.5447493172344293
aF0.3258986759369547
aF0.6511686154879328
aa(lp333
F0.46778615385558525
aF0.30609473130196574
aF0.5215165220693775
aa(lp334
F0.5374306111477014
aF0.5401578620027465
aF0.2137003813937568
aa(lp335
F0.5486660312443211
aF0.5436174326604439
aF0.06575957492666325
aa(lp336
F0.5552264725349438
aF0.58458717680248
aF0.01290630738926657
aa(lp337
F0.5661621325048067
aF0.4800385611535533
aF0.09787820992707658
aa(lp338
F0.5816373281714553
aF0.6303166660496282
aF0.1698059443127682
aa(lp339
F0.6218512851327613
aF0.5222971321519295
aF0.31451485080989994
aa(lp340
F0.47248185733436493
aF0.4107212470610037
aF0.2747181524524967
aa(lp341
F0.4533246175391972
aF0.3065500908079206
aF0.3980637451953027
aa(lp342
F0.4072860704254507
aF0.31856355165389233
aF0.41523988734205103
aa(lp343
F0.5202965153586939
aF0.40416731256730376
aF0.40996922964506344
aa(lp344
F0.585120313606579
aF0.4559186716644297
aF0.3575039927479342
aa(lp345
F0.6253264627942192
aF0.4879540930292569
aF0.30225386864806875
aa(lp346
F0.5545689521173136
aF0.5866133876679854
aF0.18279800157188372
aa(lp347
F0.5738693434508072
aF0.6848647797726144
aF0.40509273283083114
aa(lp348
F0.5593277332928775
aF0.6175047455669487
aF0.5666884458116486
aa(lp349
F0.6810601162063281
aF0.6782648831453766
aF0.5869304141988786
aa(lp350
F0.7148850591264839
aF0.7579643386349173
aF0.6692637045962528
aa(lp351
F0.6520878010708222
aF0.860091372702537
aF0.6503352730539604
aa(lp352
F0.696362951492394
aF0.8285578851842572
aF0.4582654422148658
aa(lp353
F0.574902637272028
aF0.7427317718208455
aF0.42899767356254037
aa(lp354
F0.6733512524857752
aF0.5928038252250737
aF0.41387623131459156
aa(lp355
F0.5509783581108915
aF0.5712102893753725
aF0.28068569919209213
aa(lp356
F0.5617925099723897
aF0.5401950729212237
aF0.08395868594337781
aa(lp357
F0.5406767796960849
aF0.5582593752591767
aF0.09098452340870589
aa(lp358
F0.4223310920089021
aF0.7123275492393057
aF0.375318743634633
aa(lp359
F0.48346103802605395
aF0.6480833022228043
aF0.2546534206768838
aa(lp360
F0.5633164456564472
aF0.6160398658764025
aF0.12765005040093033
aa(lp361
F0.555308055993596
aF0.5860399408490196
aF0.05596641255908211
aa(lp362
F0.5602443063054825
aF0.5719507964434687
aF0.013446255075529035
aa(lp363
F0.5870515382921343
aF0.5110529628305992
aF0.09828461389848009
aa(lp364
F0.5757998658955716
aF0.6524330639157432
aF0.2378728744177681
aa(lp365
F0.47421027172690977
aF0.6089334443099867
aF0.24608201101252825
aa(lp366
F0.5610096859527833
aF0.5713009767547458
aF0.24484701521065616
aa(lp367
F0.5563021863204192
aF0.5400268891809997
aF0.20870378206060086
aa(lp368
F0.5547214567426433
aF0.6710841953562365
aF0.10724438299110456
aa(lp369
F0.5591408862468195
aF0.5810973295630815
aF0.0007686402811375004
aa(lp370
F0.5643858374109313
aF0.5294924775516108
aF0.03990373909020298
aa(lp371
F0.563990287648767
aF0.6369554724128577
aF0.05464749617279843
aa(lp372
F0.5468710318539483
aF0.5901140154087766
aF0.03408589654236645
aa(lp373
F0.5167162859669979
aF0.6809892001476704
aF0.12527050695516115
aa(lp374
F0.5625181639062473
aF0.6003424315029633
aF0.21051119340883925
aa(lp375
F0.5134736771263746
aF0.7237511433582187
aF0.294716126547842
aa(lp376
F0.4915994965112679
aF0.6947180948261747
aF0.2761800107004171
aa(lp377
F0.5682847246508438
aF0.8163336838890852
aF0.35621508423938075
aa(lp378
F0.4719379521721293
aF0.709293987053069
aF0.3075153398384524
aa(lp379
F0.508947905270218
aF0.6147711119662598
aF0.23306085661143838
aa(lp380
F0.5149038369980221
aF0.43824986675675265
aF0.19771635071549581
aa(lp381
F0.5873592689789872
aF0.5061887014667467
aF0.1033245388697499
aa(lp382
F0.5734677779802447
aF0.4206296896316598
aF0.2810877764995226
aa(lp383
F0.6684271942070961
aF0.30940038054898333
aF0.4082830460859779
aa(lp384
F0.6336841257520034
aF0.37836297845547834
aF0.3894825055881162
aa(lp385
F0.5955352115923265
aF0.4621782665135221
aF0.2121000698575692
aa(lp386
F0.6527143359712407
aF0.5851381837710327
aF0.3512775427267794
aa(lp387
F0.7042046846682459
aF0.5884071939470946
aF0.5157449305620119
aa(lp388
F0.6690485527595202
aF0.5618503906221312
aF0.38821778128383216
aa(lp389
F0.6577658783151382
aF0.5143033499803865
aF0.4824002132925757
aa(lp390
F0.6432436307945293
aF0.4814692550199529
aF0.5696730956909776
aa(lp391
F0.46383484255408497
aF0.5414212294226376
aF0.5492852014609556
aa(lp392
F0.4533554328953792
aF0.4379335333147111
aF0.5013494250580918
aa(lp393
F0.4632349596441895
aF0.2493609685854686
aF0.5147722153287144
aa(lp394
F0.5623740308764769
aF0.267661262409392
aF0.507979064760799
aa(lp395
F0.44768266545309665
aF0.2890767661808446
aF0.6653154833398953
aa(lp396
F0.5928481320561957
aF0.31246261206601905
aF0.790382624856296
aa(lp397
F0.6113644042186075
aF0.3188257268611852
aF0.6868110259023354
aa(lp398
F0.5971946525088907
aF0.5259282944938617
aF0.3119153423572214
aa(lp399
F0.5715777472288128
aF0.67620768855606
aF0.22015877881056564
aa(lp400
F0.5661658732498904
aF0.6132136790588656
aF0.10988542767618759
aa(lp401
F0.5613804488737788
aF0.5730357784656704
aF0.023785942820369943
aa(lp402
F0.6130974369798776
aF0.6634199525342204
aF0.16725701584997932
aa(lp403
F0.5523640033517158
aF0.6023981827094137
aF0.031110979451868383
aa(lp404
F0.5623196639394044
aF0.6481891673630543
aF0.07129318100820159
aa(lp405
F0.4887665197317391
aF0.5084029022248514
aF0.19250960228544056
aa(lp406
F0.5655910620452578
aF0.6147212372699438
aF0.16629439562629483
aa(lp407
F0.529638556620783
aF0.5469809822102198
aF0.17501778112610575
aa(lp408
F0.5805765295698135
aF0.5129301563951842
aF0.13703633266992352
aa(lp409
F0.5744469293068668
aF0.6400676325868884
aF0.13248978704809186
aa(lp410
F0.5454983741262395
aF0.5710895142634109
aF0.15382149010372786
aa(lp411
F0.5562621354945014
aF0.4612890051894451
aF0.18457398845672568
aa(lp412
F0.6102541075873009
aF0.6013606392882173
aF0.3003406104101088
aa(lp413
F0.6283444945966745
aF0.6262991539838095
aF0.2154506295611232
aa(lp414
F0.546555182665721
aF0.6506955620378998
aF0.07887771884919514
aa(lp415
F0.5070174932370501
aF0.6493014512054577
aF0.16770832978803815
aa(lp416
F0.5542566118175687
aF0.5305122869557412
aF0.026907367360832792
aa(lp417
F0.5393119824152736
aF0.4273559389746955
aF0.19268721645180067
aa(lp418
F0.4754055076474845
aF0.4550922421586593
aF0.35788331223092285
aa(lp419
F0.4713058813035315
aF0.33184180679327313
aF0.3706260584097975
aa(lp420
F0.4404493057815232
aF0.342011317062125
aF0.33543284664698175
aa(lp421
F0.5065583278516075
aF0.357118929373051
aF0.4933756544364294
aa(lp422
F0.5547295283476528
aF0.6194477065060231
aF0.07568005695355798
aa(lp423
F0.5703976063522509
aF0.6753862991721175
aF0.1622107333806418
aa(lp424
F0.5241351449905208
aF0.5390075616255291
aF0.13325971571919223
aa(lp425
F0.5435616449455095
aF0.5848637036697872
aF0.05416137628292797
aa(lp426
F0.6003030551766445
aF0.6997597013590218
aF0.17752913742273996
aa(lp427
F0.5576132963854346
aF0.7949285793285796
aF0.31146549637506676
aa(lp428
F0.5242930996550289
aF0.8378155370292961
aF0.46891382621760824
aa(lp429
F0.4545674664252861
aF0.8688288877294482
aF0.5612232473130372
aa(lp430
F0.5085837979737415
aF0.8857489284952957
aF0.6037566847880509
aa(lp431
F0.4294061621820063
aF0.9064434854029846
aF0.4922025000009601
aa(lp432
F0.5304522668724498
aF0.5924357942996783
aF0.11810334033081143
aa(lp433
F0.5594675313921245
aF0.5285074326438515
aF0.0024614921503518516
aa(lp434
F0.5464120647726343
aF0.5482000410585869
aF0.04106417479794651
aa(lp435
F0.5568045123362857
aF0.5379937548204857
aF0.005034699369291751
aa(lp436
F0.5430008827229897
aF0.5610637714497546
aF0.18035024298212676
aa(lp437
F0.508140099245945
aF0.7097410900187175
aF0.2834280030603214
aa(lp438
F0.4535900816500299
aF0.6205894884993541
aF0.37854075542416155
aa(lp439
F0.4121212160137211
aF0.7127455334363548
aF0.5360543154495468
aa(lp440
F0.47211001372072714
aF0.835564950556621
aF0.5390046406568588
aa(lp441
F0.6083262636936229
aF0.8214767553594098
aF0.6126328597968772
aa(lp442
F0.5993542639989276
aF0.8817881499421952
aF0.5134623714545006
aa(lp443
F0.5181121925557909
aF0.8747439188839616
aF0.5837260770871605
aa(lp444
F0.5943974879325256
aF0.39261736538061237
aF0.40725477970539964
aa(lp445
F0.5104959501453002
aF0.4583772249322819
aF0.526613001781511
aa(lp446
F0.6761383256757103
aF0.45175905063194133
aF0.5380410569380578
aa(lp447
F0.5694984819748201
aF0.4048158201496405
aF0.491942154632553
aa(lp448
F0.4904978708677285
aF0.2411319961602465
aF0.5617387065784655
aa(lp449
F0.47284408773095665
aF0.3144568861578938
aF0.6780713965355141
aa(lp450
F0.30066358247265085
aF0.3683664811943616
aF0.7335830953780667
aa(lp451
F0.3526678870411917
aF0.3933394308319849
aF0.7817029525142317
aa(lp452
F0.4897374589824453
aF0.2744594893947223
aF0.7802695506476425
aa(lp453
F0.6748257374466808
aF0.23669900324127874
aF0.7369123896683153
aa(lp454
F0.7299703229107518
aF0.27583287897357445
aF0.6510114473820874
aa(lp455
F0.5909710663514347
aF0.18521250397343014
aF0.7275033064254952
aa(lp456
F0.431668655666521
aF0.188665059063785
aF0.7611776517430675
aa(lp457
F0.44987399786184423
aF0.3764766078145302
aF0.7052778906267883
aa(lp458
F0.6107154247793253
aF0.4661357344358418
aF0.7715432031186658
aa(lp459
F0.557912657982127
aF0.5652601340959594
aF0.7569392002483467
aa(lp460
F0.49682954873794793
aF0.6069927858874331
aF0.6877305232253237
aa(lp461
F0.4426645059487234
aF0.7256693219002484
aF0.738440154148158
aa(lp462
F0.3578060620733363
aF0.7502946629276306
aF0.5636440974122788
aa(lp463
F0.4539245487048549
aF0.5231773019035668
aF0.7088618713365716
aa(lp464
F0.3383079059240335
aF0.45929633371529094
aF0.7342014933837537
aa(lp465
F0.33345792377490574
aF0.5031147485544537
aF0.7897302354006128
aa(lp466
F0.43544745858960765
aF0.598222350319759
aF0.7685219491788948
aa(lp467
F0.3463078900700888
aF0.657026036454911
aF0.6300638732957542
aa(lp468
F0.6162264465288267
aF0.45057641146930644
aF0.2412129519928799
aa(lp469
F0.5741771800630933
aF0.4788430761078049
aF0.09145801162919627
aa(lp470
F0.5707090821017874
aF0.5453511438435436
aF0.040825014866149534
aa(lp471
F0.5578646718767454
aF0.5285492117709243
aF0.0091925959400597
aa(lp472
F0.5094645135830916
aF0.6266690687138072
aF0.16870739953673156
aa(lp473
F0.5196914500442928
aF0.6182428307160535
aF0.3254791089543056
aa(lp474
F0.6586751603343668
aF0.7576018976168147
aF0.3297259461195705
aa(lp475
F0.6457785707941806
aF0.7806336813667318
aF0.4984772023218166
aa(lp476
F0.56980272484879
aF0.8862945588694506
aF0.5002110921223537
aa(lp477
F0.693412426435633
aF0.7729044224557908
aF0.5328775741837132
aa(lp478
F0.7428436473115132
aF0.6456313088133807
aF0.6121152607221885
aa(lp479
F0.6558625492406346
aF0.6902100858710507
aF0.47310663550700083
aa(lp480
F0.6751476576410688
aF0.7241902948203548
aF0.6237179122735236
aa(lp481
F0.747078770736195
aF0.78074239074471
aF0.7775044902917704
aa(lp482
F0.6975997701123693
aF0.9439624289373921
aF0.7798397015439483
aa(lp483
F0.7045751617628904
aF0.9173686466209209
aF0.694707973918947
aa(lp484
F0.5372679945157592
aF0.4270485688748933
aF0.24306181956713024
aa(lp485
F0.47920814713150556
aF0.43832275557059036
aF0.42315440593147713
aa(lp486
F0.454828575746267
aF0.552762684041538
aF0.4111242264532844
aa(lp487
F0.5369401333820086
aF0.7137669974527038
aF0.3663833717274746
aa(lp488
F0.5494935560446718
aF0.7422078015694482
aF0.28213135068310013
aa(lp489
F0.6617756302773604
aF0.8006812369368043
aF0.37516803915978225
aa(lp490
F0.5438135288494473
aF0.8654877853494395
aF0.4655860538221247
aa(lp491
F0.5780924701518113
aF0.8355331094926254
aF0.43375542324357996
aa(lp492
F0.412745664883266
aF0.8792043635805571
aF0.4528267229463765
aa(lp493
F0.45530522544041385
aF0.9561514449561315
aF0.6005703544560212
aa(lp494
F0.6460985617251644
aF0.933618823819157
aF0.6514704077658262
aa(lp495
F0.6435481287675637
aF0.7748033987762086
aF0.6469646207026795
aa(lp496
F0.7052207216335987
aF0.8482916348196372
aF0.5213298051903232
aa(lp497
F0.643817840689002
aF0.805214745838479
aF0.4554341422686264
aa(lp498
F0.49647171358395675
aF0.8641194206474143
aF0.5404386023249752
aa(lp499
F0.4578697094108429
aF0.7289204207344739
aF0.42243694959520167
aa(lp500
F0.4933294823692684
aF0.7219621734943711
aF0.3160712763642954
aa(lp501
F0.5498407634681821
aF0.6885002404255582
aF0.23650308330436723
aa(lp502
F0.5708603514557927
aF0.6374802808583071
aF0.08074807864361838
aa(lp503
F0.577250023271713
aF0.225303874650347
aF0.4894166787395885
aa(lp504
F0.6240140666875691
aF0.30270930763070847
aF0.49921639174482224
aa(lp505
F0.6158575875948042
aF0.22469372824183545
aF0.5761187128240732
aa(lp506
F0.5776627388315894
aF0.3071004447247284
aF0.6558172250338775
aa(lp507
F0.6781322059874118
aF0.19901141948825016
aF0.5232087531276998
aa(lp508
F0.5329349428015827
aF0.3297599543982257
aF0.4810354212078323
aa(lp509
F0.490698740994463
aF0.48958996172919395
aF0.5120387545543451
aa(lp510
F0.48168607880295516
aF0.4990585162963499
aF0.41924241565116127
aa(lp511
F0.5732160629191622
aF0.8263788180234705
aF0.4772760146731281
aa(lp512
F0.4116269838252849
aF0.8330597990988353
aF0.4751647402132072
aa(lp513
F0.426543590769235
aF0.6893314698806272
aF0.5755505910734801
aa(lp514
F0.3293654568107471
aF0.7715626964734064
aF0.7052886175516218
aa(lp515
F0.32674030265641596
aF0.9548444401821641
aF0.7823700443290382
aa(lp516
F0.35300633267569914
aF1.0318899697926318
aF0.7751026532178128
aa(lp517
F0.38464671751178137
aF0.956551760861218
aF0.792326474626655
aa(lp518
F0.48418165134242186
aF0.8513344071621325
aF0.698438281509207
aa(lp519
F0.5999704837526167
aF0.7989526316419586
aF0.7006558569507914
aa(lp520
F0.5528799470497074
aF0.8438013664522986
aF0.6922912369691909
aa(lp521
F0.6423025550107144
aF0.8084268050035742
aF0.5858546114842368
aa(lp522
F0.5652466137180667
aF0.7845597652115185
aF0.49164416442629666
aa(lp523
F0.4890448080322758
aF0.6911129146414596
aF0.43364836323926137
aa(lp524
F0.4988659234790085
aF0.6154725020743507
aF0.6047473199488254
aa(lp525
F0.6682143409519706
aF0.615128406242392
aF0.6611778269418666
aa(lp526
F0.7889437252640239
aF0.6960095655306895
aF0.711056423951641
aa(lp527
F0.46162779487385236
aF0.7647700265236421
aF0.736087042040855
aa(lp528
F0.6260090841041159
aF0.6385200328321503
aF0.23721098361811777
aa(lp529
F0.5945867967104727
aF0.5157128862810062
aF0.2026018593119301
aa(lp530
F0.5547494508770648
aF0.545117875938233
aF0.022858861008159616
aa(lp531
F0.610349968101603
aF0.4897583911474757
aF0.16231179490872263
aa(lp532
F0.5150707437496077
aF0.5918469854694556
aF0.14689366981158392
aa(lp533
F0.5832261967672989
aF0.5010288139662827
aF0.16867769137302943
aa(lp534
F0.5598887422278276
aF0.5728732684175458
aF0.007875531402270042
aa(lp535
F0.5664099646750885
aF0.5084011677885096
aF0.05234562380834484
aa(lp536
F0.5858496974711671
aF0.558586934517934
aF0.08867245503510182
aa(lp537
F0.5232370252249922
aF0.4368144435000576
aF0.21944802157188636
aa(lp538
F0.5837236802608523
aF0.3994168242976974
aF0.3359749310628224
aa(lp539
F0.5758587910168964
aF0.49262887314954684
aF0.2493917065342883
aa(lp540
F0.5180146876720629
aF0.45839374496900237
aF0.12007051133192181
aa(lp541
F0.5669683653604127
aF0.6003177039257186
aF0.04467322305120787
aa(lp542
F0.5603365133565572
aF0.5785299489441952
aF0.028117120096689343
aa(lp543
F0.5204702043894023
aF0.5188532704622069
aF0.1072477216819217
aa(lp544
F0.4946535365304201
aF0.4086907608674494
aF0.26841357060389176
aa(lp545
F0.5654207145736045
aF0.3640039730921365
aF0.3954187760369834
aa(lp546
F0.598067659005584
aF0.3129579535501282
aF0.35283623436357453
aa(lp547
F0.5006666873339656
aF0.41125938470819345
aF0.43288215563052335
aa(lp548
F0.38650825679879364
aF0.3117746637555805
aF0.5530209638860061
aa(lp549
F0.45896319555057846
aF0.33873276469170144
aF0.426603486470592
aa(lp550
F0.4018464343156786
aF0.3567032976673624
aF0.5714180998887558
aa(lp551
F0.6179002195363196
aF0.7024617234428034
aF0.204285723494192
aa(lp552
F0.5506177023181387
aF0.6491388624560792
aF0.2379597485006163
aa(lp553
F0.4639983663514103
aF0.4821312080501542
aF0.2824246110519941
aa(lp554
F0.591931467259002
aF0.4529049580293179
aF0.19430364115097315
aa(lp555
F0.5298668364212439
aF0.5633619882374268
aF0.09868606102382077
aa(lp556
F0.556411685856316
aF0.5815160606969008
aF0.015526607224271417
aa(lp557
F0.557341575851414
aF0.5691925526189396
aF0.017148296814261332
aa(lp558
F0.5691278921292219
aF0.68245952929828
aF0.17041530280547423
aa(lp559
F0.5782907460483473
aF0.6910917635025622
aF0.24998405308357868
aa(lp560
F0.5329886604900577
aF0.5991969355286607
aF0.0910085498514305
aa(lp561
F0.5619977011547322
aF0.5562131364934727
aF0.019966553525721853
aa(lp562
F0.5056171986858549
aF0.43581256458864875
aF0.15685663854046272
aa(lp563
F0.568759161645448
aF0.5872362603083476
aF0.05310725304560213
aa(lp564
F0.6235414273606503
aF0.6330105321262074
aF0.23790601824438307
aa(lp565
F0.5144471931809992
aF0.6398254322718064
aF0.14416868662675028
aa(lp566
F0.5758790190904785
aF0.4961520263594704
aF0.11397279926116317
aa(lp567
F0.5452591261211933
aF0.5216110897775736
aF0.04598988780921483
aa(lp568
F0.5336565069835201
aF0.5626676222910347
aF0.12076175815259536
aa(lp569
F0.5666879039052547
aF0.6082222751355044
aF0.04211676467849852
aa(lp570
F0.5514134570329771
aF0.5454098490865326
aF0.032669510794312816
aa(lp571
F0.5664484986961864
aF0.5390589333936366
aF0.06922540170022966
aa(lp572
F0.43400891678213177
aF0.3357827668667392
aF0.7367265491077044
aa(lp573
F0.3834010273335161
aF0.4847260842807589
aF0.6881915250353421
aa(lp574
F0.36220513864219245
aF0.6484485344020317
aF0.6318734337612628
aa(lp575
F0.40360810541221903
aF0.5914523181753213
aF0.4463914084404591
aa(lp576
F0.4794486867388032
aF0.5076457286214001
aF0.3587368664340412
aa(lp577
F0.44667355855006025
aF0.4328645184089974
aF0.39865854575163184
aa(lp578
F0.4719064773276365
aF0.25390044010490936
aF0.45027361142750816
aa(lp579
F0.4852883972473293
aF0.2796319447217239
aF0.5282567268748635
aa(lp580
F0.3711391019060645
aF0.22692403836064667
aF0.5467230457699538
aa(lp581
F0.49940086204049144
aF0.32965629931234997
aF0.4703127688198294
aa(lp582
F0.6052017814199675
aF0.28034602966512423
aF0.5047421246541408
aa(lp583
F0.7301703483284834
aF0.2136585136901636
aF0.5739032834993204
aa(lp584
F0.6754026543141611
aF0.3613766998795549
aF0.5622350184270711
aa(lp585
F0.7031674869355917
aF0.4231886661864416
aF0.4402012882319013
aa(lp586
F0.6446392652687731
aF0.5655956584622066
aF0.3141617522865189
aa(lp587
F0.608310414766226
aF0.4789800476513867
aF0.3508814093362318
aa(lp588
F0.6514110781200465
aF0.33800648425199203
aF0.35305350318264006
aa(lp589
F0.6465018781305548
aF0.49733889630710626
aF0.4036501191007781
aa(lp590
F0.5520428872720894
aF0.4658457491020303
aF0.24613341071094857
aa(lp591
F0.48909883627685846
aF0.6382719791520133
aF0.29514763190857457
aa(lp592
F0.5165935229969315
aF0.7138288568079089
aF0.20614992165893753
aa(lp593
F0.49351149042260445
aF0.5683664970533371
aF0.2138884328430841
aa(lp594
F0.5244708773408493
aF0.5082595984749184
aF0.20866987942580312
aa(lp595
F0.3235579269421975
aF0.33222629716008817
aF0.7538327186356226
aa(lp596
F0.46371028274139914
aF0.25368664937907043
aF0.7915838843835822
aa(lp597
F0.5528398350248789
aF0.1526415736832404
aF0.7181682389853012
aa(lp598
F0.6211029102796708
aF0.21380980980760442
aF0.7069968272047434
aa(lp599
F0.6469813368788704
aF0.20743385595477076
aF0.707834930005316
aa(lp600
F0.7476730746604873
aF0.06382276800412592
aF0.7982359202255194
aa(lp601
F0.7425749810604874
aF0.2154146651084899
aF0.7974415643028525
aa(lp602
F0.7929487244088558
aF0.38588999282793995
aF0.749105503583269
aa(lp603
F0.7891980542172317
aF0.513890430306718
aF0.7203572077592312
aa(lp604
F0.7921669598050496
aF0.49022409197422184
aF0.7306265310187677
aa(lp605
F0.6989516730885361
aF0.5476636417893685
aF0.613273316952228
aa(lp606
F0.7341728016620008
aF0.7301728118603479
aF0.6140071605678697
aa(lp607
F0.6827619071578368
aF0.8689162917989882
aF0.5957990766801597
aa(lp608
F0.7796114133349926
aF0.9107186476078185
aF0.7052122538143426
aa(lp609
F0.7846839070182323
aF0.942783548578237
aF0.7601427578333998
aa(lp610
F0.7398171527340273
aF1.020305774336137
aF0.7282402117860425
aa(lp611
F0.7407935573265876
aF0.858722438298502
aF0.7225382085463916
aa(lp612
F0.6046890140065161
aF0.8615533494550667
aF0.6231573930914074
aa(lp613
F0.4420467799434365
aF0.9108385520073031
aF0.5254428734741426
aa(lp614
F0.46930272236525206
aF0.7460636817073167
aF0.5035887183707461
aa(lp615
F0.4471477912242109
aF0.6592166216968296
aF0.5235289772652345
aa(lp616
F0.5295679240780927
aF0.6737278023553834
aF0.5257629476599143
aa(lp617
F0.4162843058468909
aF0.6505319095131455
aF0.47326488022937324
aa(lp618
F0.47968232638972286
aF0.7287888546864263
aF0.3026850232023415
aa(lp619
F0.4796143321015861
aF0.5674654416747147
aF0.2512543131436779
aa(lp620
F0.5172375540882519
aF0.5807002526621758
aF0.2067953057469108
aa(lp621
F0.6167081027600069
aF0.5616602362696546
aF0.24041307974532825
aa(lp622
F0.6647788000269433
aF0.6130798530047918
aF0.5263486395257572
aa(lp623
F0.3609701694505891
aF0.6893409947587833
aF0.5611414608982744
aa(lp624
F0.3723121834471019
aF0.6945776024650907
aF0.5639273843497769
aa(lp625
F0.45906781218770476
aF0.6883068521551388
aF0.44380798216710016
aa(lp626
F0.5237473453041394
aF0.7959732745200347
aF0.3612380177872518
aa(lp627
F0.6647835634393708
aF0.7667395247320231
aF0.4301161664016091
aa(lp628
F0.6490077482433135
aF0.6731019922010499
aF0.30291379844416055
aa(lp629
F0.516360715911659
aF0.6792333569076907
aF0.22199594876207795
aa(lp630
F0.513268758615463
aF0.6046244915370997
aF0.15548769460176537
aa(lp631
F0.556185447553737
aF0.5716976806571912
aF0.008114459582745948
aa(lp632
F0.5457454458804855
aF0.4851404657169728
aF0.16558852604112886
aa(lp633
F0.5699932083707838
aF0.4411071462389727
aF0.14879528532586228
aa(lp634
F0.6020274699678068
aF0.4181308670129286
aF0.23512253593328503
aa(lp635
F0.6719604177072163
aF0.3270543470451539
aF0.34821862957855276
aa(lp636
F0.5736414776311088
aF0.36574954424814665
aF0.5039100420711219
aa(lp637
F0.5225592354220768
aF0.39848496880062634
aF0.3862572518881292
aa(lp638
F0.46499827357620366
aF0.4729192765198197
aF0.36245369780450076
aa(lp639
F0.46868838691547926
aF0.5119933388120956
aF0.272516070226271
aa(lp640
F0.5253138347115566
aF0.5168065939855919
aF0.09734222009537286
aa(lp641
F0.5412935163657241
aF0.4824480231703955
aF0.08121251326713948
aa(lp642
F0.5616808650867986
aF0.6459895914090865
aF0.07569781245977217
aa(lp643
F0.5871418570769357
aF0.5019971635081412
aF0.0909741028926761
aa(lp644
F0.5547084078699372
aF0.5270599001743896
aF0.05159853234324788
aa(lp645
F0.5581104964454094
aF0.539179906088891
aF0.018468157588658673
aa(lp646
F0.5683892680858548
aF0.5237110865881002
aF0.04352464001752363
aa(lp647
F0.5704332377778862
aF0.59223913235139
aF0.13210949111415424
aa(lp648
F0.6332615932949268
aF0.6418375445392582
aF0.2810021875964502
aa(lp649
F0.5070887990855415
aF0.4978120882145013
aF0.33429571105386624
aa(lp650
F0.5699752294554756
aF0.4416322881847575
aF0.2478543526388446
aa(lp651
F0.6480747313543436
aF0.3141270644581865
aF0.3677437739133409
aa(lp652
F0.5838864218899722
aF0.22093714524079644
aF0.5149248835432731
aa(lp653
F0.6282046679280828
aF0.5990500487457621
aF0.21969952599230444
aa(lp654
F0.593990005736996
aF0.6637100750982186
aF0.38108605574956045
aa(lp655
F0.4593222867682368
aF0.7806498685501774
aF0.30648795763159137
aa(lp656
F0.5043604900860182
aF0.738089033175299
aF0.40292301284762094
aa(lp657
F0.4206730731034083
aF0.83596715626932
aF0.37994205061703373
aa(lp658
F0.3854826686390502
aF0.9460770636260527
aF0.5413146955399147
aa(lp659
F0.5271099164523018
aF0.2052094982273946
aF0.5391554189268962
aa(lp660
F0.5412737285932704
aF0.32358592352452525
aF0.4409694849560464
aa(lp661
F0.5843994565150543
aF0.4834354846363505
aF0.4317209007292763
aa(lp662
F0.4595231233816373
aF0.4584439239471805
aF0.5849697478679173
aa(lp663
F0.5187962979816663
aF0.4588393501218656
aF0.12719413202688817
aa(lp664
F0.5605658224927301
aF0.5409336621980508
aF0.014343977614982784
aa(lp665
F0.5770016628552728
aF0.6469975079461997
aF0.08096284917503134
aa(lp666
F0.5771861967297092
aF0.4990354528072901
aF0.17420164665762095
aa(lp667
F0.5469362021231977
aF0.6266681701072974
aF0.05527187479840787
aa(lp668
F0.5006232320552427
aF0.7310568808562956
aF0.19661248452280972
aa(lp669
F0.5182217572341733
aF0.7512509670585281
aF0.3798308091392916
aa(lp670
F0.511172349276709
aF0.7857927377573386
aF0.41487215431448166
aa(lp671
F0.6897422234441499
aF0.8568821797242332
aF0.43905787311057876
aa(lp672
F0.36137672575522106
aF1.0232682859081306
aF0.794292946161542
aa(lp673
F0.3986670789885456
aF0.8684311761080548
aF0.738010603213194
aa(lp674
F0.5087388014209352
aF0.8859951174489609
aF0.6686714932412023
aa(lp675
F0.5516914314989838
aF0.837666823360905
aF0.48744358719347514
aa(lp676
F0.6195561634238373
aF0.7536980763702339
aF0.35475314392940355
aa(lp677
F0.6224229579039078
aF0.6081867656188118
aF0.3958969856841244
aa(lp678
F0.674246111790517
aF0.5872258672142534
aF0.4580446009295558
aa(lp679
F0.6531502991009357
aF0.7720799499067241
aF0.45309356375084414
aa(lp680
F0.7084014093391219
aF0.6654707667091988
aF0.5273269552953989
aa(lp681
F0.5772749542961756
aF0.8073830009244987
aF0.5425405682077739
aa(lp682
F0.5797867996526846
aF0.8270595299399757
aF0.47682920905289894
aa(lp683
F0.6031269526944318
aF0.5154155722429347
aF0.3951471009442208
aa(lp684
F0.4651817870516743
aF0.4756041530967535
aF0.38964339546843824
aa(lp685
F0.5505940120769528
aF0.3903438285039885
aF0.41351849294517207
aa(lp686
F0.4966876485037084
aF0.40638320484788015
aF0.5864232001259356
aa(lp687
F0.4329736461713321
aF0.5126109862446282
aF0.6779089311952476
aa(lp688
F0.4215325978558526
aF0.4952423415142668
aF0.7273048060376892
aa(lp689
F0.43195193680864336
aF0.6296959492554546
aF0.7608312157053136
aa(lp690
F0.49239524758621644
aF0.5443956741289275
aF0.7583169678243027
aa(lp691
F0.5927935466769533
aF0.4949889098016694
aF0.6645099397889818
aa(lp692
F0.6285835347508492
aF0.36961820218725505
aF0.6082507609358527
aa(lp693
F0.7337330266173143
aF0.34844580936565583
aF0.7348568594208501
aa(lp694
F0.7325605442159999
aF0.47852833627530866
aF0.6374114865424253
aa(lp695
F0.6189395793732392
aF0.4669571379726459
aF0.18420402533558855
aa(lp696
F0.5071822882616858
aF0.5114526113500555
aF0.26128074425011455
aa(lp697
F0.5556174865846168
aF0.6732001431550054
aF0.18646416557417905
aa(lp698
F0.44047032422229676
aF0.6554291135159065
aF0.3415118660436455
aa(lp699
F0.47294945541108
aF0.6028795976717422
aF0.44374339369129806
aa(lp700
F0.7625978308441921
aF0.6418269088120916
aF0.7342990405731307
aa(lp701
F0.6398306995906622
aF0.7192229869689525
aF0.7284410425989245
aa(lp702
F0.5586555937592356
aF0.6329775473619874
aF0.5894660767176848
aa(lp703
F0.6407328478531042
aF0.4932141606397288
aF0.6359650141406139
aa(lp704
F0.5694914581696807
aF0.5307708712569983
aF0.7282196290099561
aa(lp705
F0.4575927503725363
aF0.49301278235097823
aF0.6389815162491096
aa(lp706
F0.3655029233861221
aF0.37472536615184726
aF0.610618851896015
aa(lp707
F0.3675888865795984
aF0.3510618000905719
aF0.7514170834764202
aa(lp708
F0.49835826822830614
aF0.2631813186077966
aF0.7546823892463308
aa(lp709
F0.6413739741559252
aF0.2580890516409725
aF0.7238282286163863
aa(lp710
F0.6519944646488438
aF0.19321219859737196
aF0.5432452127822595
aa(lp711
F0.676403825606179
aF0.35581302412090304
aF0.44518300929700483
aa(lp712
F0.6525836957070243
aF0.26534068074326633
aF0.4319374707061284
aa(lp713
F0.5701423782723986
aF0.3070767263681694
aF0.5258864507484785
aa(lp714
F0.4731171002565379
aF0.25875211526607866
aF0.5948996581468997
aa(lp715
F0.5670194153458483
aF0.4422899470326132
aF0.20782941154407564
aa(lp716
F0.5693298422495955
aF0.3867669358419795
aF0.2670581611275195
aa(lp717
F0.5087125709081174
aF0.46978443186979124
aF0.2411144751591121
aa(lp718
F0.5196196121634313
aF0.6574356742475755
aF0.26399356513285976
aa(lp719
F0.5754858590163519
aF0.6634929260846576
aF0.11131413194060472
aa(lp720
F0.5512941494397214
aF0.5493480721603121
aF0.031085243288472245
aa(lp721
F0.5782143364065321
aF0.6055682214394412
aF0.08610843226582682
aa(lp722
F0.5702199748815375
aF0.5694539790559373
aF0.048656961716997495
aa(lp723
F0.5612265109917457
aF0.4559565009985095
aF0.19075147835447348
aa(lp724
F0.5722768702244536
aF0.5168982846260134
aF0.047755082284341825
aa(lp725
F0.5501453141354649
aF0.5769128564086641
aF0.04026081724828643
aa(lp726
F0.5758765082070568
aF0.6479314064315156
aF0.14616790204680932
aa(lp727
F0.540268743953176
aF0.62762219465676
aF0.07399810351448526
aa(lp728
F0.5836150180174925
aF0.6231113458408626
aF0.20123141618167653
aa(lp729
F0.500085979158354
aF0.7721663045139693
aF0.2975670914948587
aa(lp730
F0.6480803829520965
aF0.6946623909757814
aF0.38854731596901887
aa(lp731
F0.5746781830315453
aF0.6228158606895868
aF0.46197928817549005
aa(lp732
F0.64615120578958
aF0.5557767926530061
aF0.40466655559204406
aa(lp733
F0.6318357733756312
aF0.7161118450609265
aF0.4666282844559896
aa(lp734
F0.61233357373601
aF0.8586250157757369
aF0.46135585470986795
aa(lp735
F0.5205126062285931
aF0.9068572649153881
aF0.5423369276439384
aa(lp736
F0.5138811425875839
aF0.9266912812584782
aF0.5387593632585709
aa(lp737
F0.554439761030481
aF0.8547443438023288
aF0.44848196765758896
aa(lp738
F0.6824657133809997
aF0.866179799305807
aF0.42063048043632717
aa(lp739
F0.6446679401407815
aF0.7734529755102842
aF0.37443852230554664
aa(lp740
F0.5845037358554119
aF0.7444651836197587
aF0.29005080771433767
aa(lp741
F0.4701986136139127
aF0.6865509034677413
aF0.43602771074985835
aa(lp742
F0.3817915334158655
aF0.6823218399637234
aF0.5816286732701673
aa(lp743
F0.457004246093711
aF0.5426689595112704
aF0.480888839446245
aa(lp744
F0.5824522687492848
aF0.40160677230985803
aF0.5434372365162954
aa(lp745
F0.5159305682861317
aF0.5103283311350635
aF0.43477300487233733
aa(lp746
F0.5402496871763345
aF0.38340754696918944
aF0.4339032682882882
aa(lp747
F0.4112648023752369
aF0.3219258929422416
aF0.4284316549928823
aa(lp748
F0.584278716609543
aF0.3224786019657965
aF0.32849212803750066
aa(lp749
F0.535055926401019
aF0.4353199723984752
aF0.18106976534695482
aa(lp750
F0.5706800412821368
aF0.5751029522164326
aF0.10743777908066302
aa(lp751
F0.5977055507829656
aF0.5680938250799115
aF0.17735209024879792
aa(lp752
F0.5865237888146352
aF0.48456729966494955
aF0.15406580453498517
aa(lp753
F0.6011775474563174
aF0.5530818534391626
aF0.15965656691653898
aa(lp754
F0.5105414319821399
aF0.44551081802459713
aF0.16011479401071452
aa(lp755
F0.5695890515067796
aF0.5654601966173242
aF0.11904141903879709
aa(lp756
F0.6054217914003254
aF0.6951734439313677
aF0.22079365012274518
aa(lp757
F0.6652959708365523
aF0.6556625808649565
aF0.4345784265861573
aa(lp758
F0.7283248982572825
aF0.18080071208476334
aF0.6905185305418412
aa(lp759
F0.7170285148202373
aF0.37219093289717653
aF0.6631011766931918
aa(lp760
F0.622272669505389
aF0.26636318727684327
aF0.6114866916580144
aa(lp761
F0.4520561931665077
aF0.3437827627288669
aF0.6807573384411891
aa(lp762
F0.33423198736775894
aF0.4561028598632222
aF0.6487310778629874
aa(lp763
F0.46720927212912355
aF0.5312685504510828
aF0.7091145539147038
aa(lp764
F0.44091473799625946
aF0.6904301708674111
aF0.6745239400159915
aa(lp765
F0.5450432665277063
aF0.6269319533561649
aF0.5320200905576505
aa(lp766
F0.6319717593923178
aF0.5786352721650893
aF0.47907564148051585
aa(lp767
F0.5351844988213148
aF0.6422058324386417
aF0.4869892890269684
aa(lp768
F0.48758965803555
aF0.6611726808002619
aF0.35657660255171114
aa(lp769
F0.6485541329024586
aF0.7169419677260676
aF0.31510545700936765
aa(lp770
F0.6609004927116853
aF0.7639954196746421
aF0.337123670745838
aa(lp771
F0.6513740934080205
aF0.5708318630885683
aF0.3741949684866066
aa(lp772
F0.5598635131343129
aF0.501681249447466
aF0.22528039523731946
aa(lp773
F0.5701026772186314
aF0.5293883240115429
aF0.1886650235342242
aa(lp774
F0.5293799877885826
aF0.6430281822053331
aF0.07884604676114951
aa(lp775
F0.5847957726509978
aF0.4819546120335011
aF0.12473854344119246
aa(lp776
F0.5614093960555784
aF0.5466578171623511
aF0.024098311764633618
aa(lp777
F0.5751702246557887
aF0.5910011384046147
aF0.06368682845864529
aa(lp778
F0.6037950681409245
aF0.6233510009295884
aF0.23046905435033782
aa(lp779
F0.629484054341768
aF0.5778884570802103
aF0.4055717847136907
aa(lp780
F0.45004976667525604
aF0.6317776558924573
aF0.40795986681377844
aa(lp781
F0.5797919611448339
aF0.6976511773886369
aF0.4233291708022746
aa(lp782
F0.5580478274068225
aF0.7386134164016405
aF0.2853556444495004
aa(lp783
F0.5540347388847086
aF0.6401539535263541
aF0.13872478869837232
aa(lp784
F0.5460366360514818
aF0.4980693357548028
aF0.06207082231326089
aa(lp785
F0.5581577740388945
aF0.5786911420476831
aF0.002651778911508984
aa(lp786
F0.5503484176988266
aF0.6303431785089209
aF0.13786605828005377
aa(lp787
F0.5822634110915713
aF0.6482862409128073
aF0.17564066209765078
aa(lp788
F0.6199436434523455
aF0.37672518280741724
aF0.31947424199233065
aa(lp789
F0.652659913630184
aF0.34372683213196553
aF0.3308771575225029
aa(lp790
F0.6216616978853464
aF0.5014916995183273
aF0.3255870204284915
aa(lp791
F0.544144969695312
aF0.5902729389837882
aF0.21709485317433092
aa(lp792
F0.4904073030443732
aF0.47506346193597515
aF0.3589978792875769
aa(lp793
F0.4888930374386091
aF0.790316675900164
aF0.5328818425089338
aa(lp794
F0.5829102039270841
aF0.7490453518151295
aF0.5556430719339592
aa(lp795
F0.7226633063677304
aF0.7408128002328371
aF0.5038240890025064
aa(lp796
F0.7319061077049847
aF0.8820707810413162
aF0.5312452204239745
aa(lp797
F0.686710935350136
aF0.7972091484248445
aF0.3949645108343107
aa(lp798
F0.6713697554685187
aF0.7708723690115694
aF0.4097099417082343
aa(lp799
F0.3761196677681002
aF0.28149649073389416
aF0.7846960151858289
aa(lp800
F0.4955685946732912
aF0.7311756843447048
aF0.20733842901891847
aa(lp801
F0.5740336745750595
aF0.6778111901359134
aF0.11439438175766875
aa(lp802
F0.5537710756613421
aF0.5942557390892133
aF0.015703424970532877
aa(lp803
F0.5608196036314623
aF0.5265956155923739
aF0.016839061086539164
aa(lp804
F0.5445209494953583
aF0.5892687867749203
aF0.061889607669031316
aa(lp805
F0.5715116956934412
aF0.5613574164225799
aF0.15734600979976046
aa(lp806
F0.5690721535250101
aF0.5737658913649025
aF0.10644631567211729
aa(lp807
F0.5506982121378693
aF0.6270148790632069
aF0.061400754224039567
aa(lp808
F0.5110674979501237
aF0.48932330634172505
aF0.15659023907428465
aa(lp809
F0.5630741740665102
aF0.5908155208542392
aF0.04315065966066625
aa(lp810
F0.5803909897830469
aF0.4932594399002611
aF0.07005047189382134
aa(lp811
F0.5746611657677295
aF0.5448342030859432
aF0.2527114845598818
aa(lp812
F0.5295803242361732
aF0.6349471885657316
aF0.41728478703783367
aa(lp813
F0.4851323050900972
aF0.7944579024481727
aF0.3571464821213394
aa(lp814
F0.5000647206812882
aF0.7651423919057733
aF0.4859321423658114
aa(lp815
F0.49193492131480615
aF0.7132623232104754
aF0.5901827482541899
aa(lp816
F0.5540472750180803
aF0.7939488107805382
aF0.7571179196306498
aa(lp817
F0.6707484598581874
aF0.9253104577554716
aF0.7658982673789414
aa(lp818
F0.6904979647939069
aF0.9066946697062124
aF0.6509799937555372
aa(lp819
F0.8053859217871897
aF0.9723680128250158
aF0.7617206528578736
aa(lp820
F0.7846265207691823
aF0.9564315445636176
aF0.7266014651742176
aa(lp821
F0.8086519807570369
aF0.8294472317697728
aF0.7745579468553616
aa(lp822
F0.8008858450035331
aF0.7242921537904627
aF0.7672538081497156
aa(lp823
F0.7069318200444128
aF0.5487722386051908
aF0.7573494219756607
aa(lp824
F0.6737471678381544
aF0.7042685065342781
aF0.656740243774977
aa(lp825
F0.5875423638488444
aF0.589975667114378
aF0.6408066006526895
aa(lp826
F0.5252333596004785
aF0.46508424628028516
aF0.7038843514679872
aa(lp827
F0.5967538315517852
aF0.6458037449518522
aF0.5284196286139845
aa(lp828
F0.48978719425204
aF0.7523695949415357
aF0.46804734947243337
aa(lp829
F0.5495680992686893
aF0.45156194713709424
aF0.19802117366131242
aa(lp830
F0.5619594627564665
aF0.4693728296421904
aF0.16979060461366144
aa(lp831
F0.4739596011028384
aF0.5737232000767336
aF0.30524475528779266
aa(lp832
F0.5107891384463852
aF0.5084334435692838
aF0.17349653416685254
aa(lp833
F0.6035070216823143
aF0.43996256062676004
aF0.15648674066327378
aa(lp834
F0.5318887176632012
aF0.5542256046818572
aF0.17032935105002675
aa(lp835
F0.5235599637442814
aF0.709967771711195
aF0.2520322637329881
aa(lp836
F0.5512176632187002
aF0.7027500720569384
aF0.34093914551240423
aa(lp837
F0.4188232806963807
aF0.557839795157308
aF0.46014729087378614
aa(lp838
F0.3650531835617532
aF0.4807228434428796
aF0.6311506390841237
aa(lp839
F0.34063377143673573
aF0.3295361582833804
aF0.6175833064925216
aa(lp840
F0.39586276781314833
aF0.23544838598842713
aF0.7133511351772444
aa(lp841
F0.5717509966448829
aF0.5717699869375508
aF0.061884165742663116
aa(lp842
F0.5646382492056591
aF0.5489758242717476
aF0.07005513830747523
aa(lp843
F0.5595218607662328
aF0.6011937178393024
aF0.0019452421499083885
aa(lp844
F0.542175614697379
aF0.6133771885342003
aF0.08537606678261236
aa(lp845
F0.5190088703888847
aF0.46535353082244235
aF0.13738934774769093
aa(lp846
F0.4760675130596977
aF0.5027410376168606
aF0.319396936460098
aa(lp847
F0.5829010741302303
aF0.3545314907572452
aF0.39672703547112304
aa(lp848
F0.6200933850539421
aF0.5695775996860506
aF0.3315693467600828
aa(lp849
F0.5030190746530415
aF0.4899568911166149
aF0.39566625627815377
aa(lp850
F0.47541017182239137
aF0.36116197879918466
aF0.3294685443816061
aa(lp851
F0.5158306005380349
aF0.3724025826585032
aF0.49961903652735123
aa(lp852
F0.5005287992885664
aF0.21988471638148427
aF0.5780785609415352
aa(lp853
F0.49107998864031704
aF0.11455211189014156
aF0.7404192488916884
aa(lp854
F0.3273306677305177
aF0.07972755248529353
aF0.7455347340899406
aa(lp855
F0.3157742057332551
aF0.12836001320696855
aF0.7901931621485668
aa(lp856
F0.3028298425863622
aF0.15189800080853813
aF0.7531113059531418
aa(lp857
F0.39203910371673384
aF0.07194187586556341
aF0.7577866741323245
aa(lp858
F0.34148520886376826
aF0.19648773893642885
aF0.7606488429933433
aa(lp859
F0.4039563628968428
aF0.21263460039607282
aF0.5860578153729559
aa(lp860
F0.3968605127174331
aF0.21683134513458102
aF0.504543468849319
aa(lp861
F0.38191772163768356
aF0.3317687475551272
aF0.646477421012728
aa(lp862
F0.40684110897636044
aF0.48211486413439913
aF0.5909397540763186
aa(lp863
F0.5144971861208241
aF0.5001369450464952
aF0.6812795874950862
aa(lp864
F0.5735234229878818
aF0.34514799525976836
aF0.7799399190370893
aa(lp865
F0.5886581600785001
aF0.33691491371225113
aF0.7209288906952188
aa(lp866
F0.5710597638012334
aF0.21687353302791468
aF0.7713319169983596
aa(lp867
F0.5742441613582256
aF0.16751988330770207
aF0.7299968146601155
aa(lp868
F0.6192904787299942
aF0.22632959498352537
aF0.556996844494754
aa(lp869
F0.6234420242630572
aF0.2720540252978455
aF0.5342756277830091
aa(lp870
F0.5151125523110909
aF0.3561567415164984
aF0.5520079179885135
aa(lp871
F0.45097253963854117
aF0.5209344952252974
aF0.47099863028158523
aa(lp872
F0.5366665914170613
aF0.6527442804612993
aF0.38155379324764604
aa(lp873
F0.742694317297828
aF0.5773019205671125
aF0.5636956196338281
aa(lp874
F0.5150060412500378
aF0.6923615753747951
aF0.3266107997532124
aa(lp875
F0.5077488202021073
aF0.7596142961459864
aF0.4562438017453763
aa(lp876
F0.6565107039682051
aF0.7060363631758093
aF0.5442802730447707
aa(lp877
F0.6059402159462438
aF0.8845752144748578
aF0.47009225452645026
aa(lp878
F0.6279926629248809
aF0.750337939268326
aF0.5985629856353106
aa(lp879
F0.5777607849032043
aF0.7722609314354691
aF0.42713986235067863
aa(lp880
F0.42842683747444177
aF0.7774509436095238
aF0.4572124577006446
aa(lp881
F0.5016063637210895
aF0.7399713931679159
aF0.510941373294655
aa(lp882
F0.6444900411105681
aF0.772755649021633
aF0.44694622867624245
aa(lp883
F0.6734277453352429
aF0.799714440443236
aF0.36422184667203567
aa(lp884
F0.6045932644961833
aF0.6980999698560058
aF0.3479808357462177
aa(lp885
F0.6396979373826924
aF0.6110476123863626
aF0.30549133876824935
aa(lp886
F0.5819899274303547
aF0.5950456158097241
aF0.13796726293263745
aa(lp887
F0.5807483678433593
aF0.44145886451419447
aF0.4488962851303794
aa(lp888
F0.7068078676128556
aF0.569175505026797
aF0.5348911256753383
aa(lp889
F0.6181559563311696
aF0.5658764283086946
aF0.5837143118634859
aa(lp890
F0.5092931884618633
aF0.5376908471225001
aF0.7253139983501737
aa(lp891
F0.49120525780204266
aF0.6945979686912356
aF0.7545528609746822
aa(lp892
F0.30883740277415483
aF0.63978070915988
aF0.726473696850183
aa(lp893
F0.34137954037409307
aF0.6621663836926344
aF0.6871868131437147
aa(lp894
F0.330647318523897
aF0.5161566086558224
aF0.7095951490607284
aa(lp895
F0.40745049014377405
aF0.4240461822566933
aF0.7735231758524885
aa(lp896
F0.32451404766270614
aF0.5591362004938691
aF0.7044907799123955
aa(lp897
F0.3179040248141045
aF0.6716014147868177
aF0.7262616010845333
aa(lp898
F0.4875168026238973
aF0.6606576203209069
aF0.7905812623151887
aa(lp899
F0.49653442522731817
aF0.7381756848448485
aF0.6898263714227968
aa(lp900
F0.4186627087680872
aF0.8614076443688214
aF0.7839010118568205
aa(lp901
F0.3411754690239408
aF1.0203167236924833
aF0.7389053464209849
aa(lp902
F0.2897714344492352
aF1.0638750105819796
aF0.7594905080303158
aa(lp903
F0.2953856218147372
aF1.0506352110683213
aF0.7661657166250027
aa(lp904
F0.43566215700407523
aF0.974834756009833
aF0.6501265137717465
aa(lp905
F0.5274705533472461
aF0.8339052572829739
aF0.5592966839973813
aa(lp906
F0.5948143541819008
aF0.7813149929908805
aF0.38974728489791555
aa(lp907
F0.6840336205546034
aF0.6411712131593617
aF0.4244440995210892
aa(lp908
F0.5747943863638492
aF0.5925988865156728
aF0.31316328323205556
aa(lp909
F0.561801950864137
aF0.5003637114294389
aF0.15511087027881454
aa(lp910
F0.5640400033702473
aF0.6047577207918741
aF0.07501356096312338
aa(lp911
F0.5456167523747946
aF0.6580974836493617
aF0.14415002170696642
aa(lp912
F0.5719388009565983
aF0.5850822624650208
aF0.19027205576566583
aa(lp913
F0.5603089245073304
aF0.5316861549839055
aF0.027194438266846355
aa(lp914
F0.581699365935998
aF0.577690048291749
aF0.09828430782910358
aa(lp915
F0.6036728122543347
aF0.390949935608485
aF0.34849095324080315
aa(lp916
F0.6033108723216356
aF0.424818482662278
aF0.24743500876493513
aa(lp917
F0.5063942003321331
aF0.4826899058737878
aF0.14161423132017054
aa(lp918
F0.5215362829848793
aF0.6284661559216902
aF0.23951945510927272
aa(lp919
F0.5105850338333642
aF0.658556323075407
aF0.23927330490022314
aa(lp920
F0.5515360863675395
aF0.5701745817888716
aF0.10888797636838365
aa(lp921
F0.5757754659173343
aF0.5833249100679728
aF0.17820831410415458
aa(lp922
F0.5512461426847346
aF0.5618583492950675
aF0.08723389165738
aa(lp923
F0.5762277481049404
aF0.5242283835589566
aF0.06061690592123608
aa(lp924
F0.5660844839477497
aF0.6547400072048728
aF0.10208415789618278
aa(lp925
F0.6119461856063593
aF0.51982892489714
aF0.18499190351545086
aa(lp926
F0.5279704559523688
aF0.41093981805599744
aF0.3034957636764258
aa(lp927
F0.5750901572199483
aF0.3837243722525432
aF0.3490808672510113
aa(lp928
F0.62364494583326
aF0.3015721274269229
aF0.39127165268710257
aa(lp929
F0.6149752723151545
aF0.24876215856668454
aF0.517949591015221
aa(lp930
F0.7547526112584817
aF0.3575730612530631
aF0.5964600693810787
aa(lp931
F0.5815672810634824
aF0.38200631373044747
aF0.5263904468655486
aa(lp932
F0.43078852448743404
aF0.33395033560855636
aF0.620383981584959
aa(lp933
F0.4505347328945172
aF0.32899186615002607
aF0.5392709183412518
aa(lp934
F0.4790275288921809
aF0.45648760289675844
aF0.39673321999798583
aa(lp935
F0.44872626654224557
aF0.5930809368717862
aF0.35510784205285095
aa(lp936
F0.5609297430059494
aF0.5314372732267388
aF0.3079262364329403
aa(lp937
F0.6130741733846805
aF0.5818315150123241
aF0.6640816369088095
aa(lp938
F0.46596076908276896
aF0.541863966987711
aF0.5353771044064549
aa(lp939
F0.4213378682105058
aF0.6075961072739011
aF0.3779271268988166
aa(lp940
F0.5059396774781857
aF0.6011461608110745
aF0.3411039014669725
aa(lp941
F0.4757276291474865
aF0.6744024433608771
aF0.2399205085543634
aa(lp942
F0.5701284550345209
aF0.5813594625720633
aF0.1382031373149081
aa(lp943
F0.5577996567894854
aF0.5334167853038998
aF3.353310487863581e-05
aa(lp944
F0.5496346882231201
aF0.5519268658328553
aF0.05575083152818508
aa(lp945
F0.628920988582428
aF0.4050437135960556
aF0.5760807362268198
aa(lp946
F0.5737479774485497
aF0.288922786887561
aF0.47863685879862433
aa(lp947
F0.6524748233238526
aF0.28663204525035757
aF0.5955767711513047
aa(lp948
F0.7535725071873516
aF0.3788483206729452
aF0.6041046751570236
aa(lp949
F0.6256192817734426
aF0.31957131367883385
aF0.4703187512019607
aa(lp950
F0.6813719492353177
aF0.29097873087951237
aF0.4153087616819279
aa(lp951
F0.7051699139925973
aF0.3876644981546663
aF0.4763059155505433
aa(lp952
F0.6517937395413371
aF0.5354549167976032
aF0.36231940978331556
aa(lp953
F0.5788103917820902
aF0.49902881568975244
aF0.29011003089403936
aa(lp954
F0.522426453781778
aF0.6643308336429017
aF0.33794730201329176
aa(lp955
F0.48451024803242315
aF0.6116238783172849
aF0.2308581417272791
aa(lp956
F0.5832894718857977
aF0.6410113275195836
aF0.11133535148830767
aa(lp957
F0.5174877928940244
aF0.5686393314060827
aF0.19670062010528114
aa(lp958
F0.5547996056421817
aF0.5020859390729568
aF0.165809209912241
aa(lp959
F0.5531344301311518
aF0.5386708278347608
aF0.03622336896838032
aa(lp960
F0.5833646228469817
aF0.6529087290590653
aF0.17382882466345678
aa(lp961
F0.48313261539814034
aF0.7347753118473457
aF0.3115267180442703
aa(lp962
F0.5819826876577537
aF0.6074359289399816
aF0.4057525840503704
aa(lp963
F0.4968751564620366
aF0.9367074417218865
aF0.5278845440784151
aa(lp964
F0.5153497734398675
aF0.8218082568590388
aF0.549319470517544
aa(lp965
F0.515554082000871
aF0.7137427995956778
aF0.46512072867632925
aa(lp966
F0.4988689222045649
aF0.521430451596028
aF0.42376625167556337
aa(lp967
F0.5232109655030885
aF0.3323199979359803
aF0.3711307791199824
aa(lp968
F0.5441609262139526
aF0.4313914705156453
aF0.40885043741006444
aa(lp969
F0.3870509724574196
aF0.52192774205346
aF0.48716569584061564
aa(lp970
F0.5322677294081484
aF0.4280367372478552
aF0.41416415194455003
aa(lp971
F0.6004639188969071
aF0.4496597226743686
aF0.2819908098912171
aa(lp972
F0.5539764822316279
aF0.5701503693348314
aF0.2059647805949502
aa(lp973
F0.5651626688672488
aF0.6010243808570972
aF0.1407097698231005
aa(lp974
F0.5554585093154044
aF0.5341305584072289
aF0.007265867478462251
aa(lp975
F0.5832345035337331
aF0.5995024723464002
aF0.19071924519309738
aa(lp976
F0.5440980740050096
aF0.653885916448415
aF0.23198094421359566
aa(lp977
F0.6205850858008564
aF0.6598175304779832
aF0.3958325200565502
aa(lp978
F0.5203105587023804
aF0.5491797642891388
aF0.33806625468614193
aa(lp979
F0.5978263480098648
aF0.4018811154227408
aF0.2854957812170906
aa(lp980
F0.6067289229937352
aF0.477681953545208
aF0.24627594329081282
aa(lp981
F0.5007608379399876
aF0.6277962882278771
aF0.20657336345606156
aa(lp982
F0.5368019383072611
aF0.5983332379508643
aF0.08031117332770094
aa(lp983
F0.5543872159780315
aF0.5941227792462843
aF0.06378655117247538
aa(lp984
F0.5337334574008391
aF0.6544328787415322
aF0.08971874663280213
aa(lp985
F0.5335251684067133
aF0.6337588287863574
aF0.06748850929778741
aa(lp986
F0.5616973710560984
aF0.5071292348727895
aF0.09287627726227017
aa(lp987
F0.5618721766500878
aF0.5471168857453412
aF0.014263496267783449
aa(lp988
F0.4913856955409079
aF0.35383522844163495
aF0.3242724242035029
aa(lp989
F0.5075360737826999
aF0.285145831025861
aF0.5645778954301787
aa(lp990
F0.653827739172935
aF0.3247960326983694
aF0.5911605643032456
aa(lp991
F0.764642904621162
aF0.8058554746473643
aF0.7797060102425877
aa(lp992
F0.6253504909421329
aF0.8528955300684783
aF0.7989330539252933
aa(lp993
F0.7285845924033914
aF0.6458013237263291
aF0.7909829843289269
aa(lp994
F0.7323224122903322
aF0.4330740245411955
aF0.7001943459172587
aa(lp995
F0.7652349113906267
aF0.32706846495271036
aF0.7082804246821272
aa(lp996
F0.7325077609814477
aF0.2598287905215068
aF0.5541317970522935
aa(lp997
F0.3372481504596899
aF0.09502138038136929
aF0.7870842203336538
aa(lp998
F0.5685037593834261
aF0.5196346865704163
aF0.6169068415670591
aa(lp999
F0.5518600005918752
aF0.5872879427719974
aF0.426881209222306
aa(lp1000
F0.653167084437476
aF0.8253327106817558
aF0.5425231847344836
aa.